******************************************************************************
             TMS320C2000 Linker PC v18.1.4                     
******************************************************************************
>> Linked Mon Jul 12 08:14:22 2021

OUTPUT FILE NAME:   <M28_HT.out>
ENTRY POINT SYMBOL: "_c_int00"  address: 0031b425


MEMORY CONFIGURATION

         name            origin    length      used     unused   attr    fill
----------------------  --------  ---------  --------  --------  ----  --------
PAGE 0:
  RAMM0M1               00000000   00000800  00000400  00000400  RWIX
  DEV_EMU               00000880   00000180  000000d0  000000b0  RWIX
  FLASH_REGS            00000a80   00000060  00000008  00000058  RWIX
  CSM                   00000ae0   00000010  00000010  00000000  RWIX
  ADC_MIRROR            00000b00   00000010  00000010  00000000  RWIX
  XINTF                 00000b20   00000020  0000001e  00000002  RWIX
  CPU_TIMER0            00000c00   00000008  00000008  00000000  RWIX
  CPU_TIMER1            00000c08   00000008  00000008  00000000  RWIX
  CPU_TIMER2            00000c10   00000008  00000008  00000000  RWIX
  PIE_CTRL              00000ce0   00000020  0000001a  00000006  RWIX
  PIE_VECT              00000d00   00000100  00000100  00000000  RWIX
  DMA                   00001000   00000200  000000e0  00000120  RWIX
  MCBSPA                00005000   00000040  00000025  0000001b  RWIX
  MCBSPB                00005040   00000040  00000025  0000001b  RWIX
  ECANA                 00006000   00000040  00000034  0000000c  RWIX
  ECANA_LAM             00006040   00000040  00000040  00000000  RWIX
  ECANA_MOTS            00006080   00000040  00000040  00000000  RWIX
  ECANA_MOTO            000060c0   00000040  00000040  00000000  RWIX
  ECANA_MBOX            00006100   00000100  00000100  00000000  RWIX
  ECANB                 00006200   00000040  00000034  0000000c  RWIX
  ECANB_LAM             00006240   00000040  00000040  00000000  RWIX
  ECANB_MOTS            00006280   00000040  00000040  00000000  RWIX
  ECANB_MOTO            000062c0   00000040  00000040  00000000  RWIX
  ECANB_MBOX            00006300   00000100  00000100  00000000  RWIX
  EPWM1                 00006800   00000022  00000022  00000000  RWIX
  EPWM2                 00006840   00000022  00000022  00000000  RWIX
  EPWM3                 00006880   00000022  00000022  00000000  RWIX
  EPWM4                 000068c0   00000022  00000022  00000000  RWIX
  EPWM5                 00006900   00000022  00000022  00000000  RWIX
  EPWM6                 00006940   00000022  00000022  00000000  RWIX
  ECAP1                 00006a00   00000020  00000020  00000000  RWIX
  ECAP2                 00006a20   00000020  00000020  00000000  RWIX
  ECAP3                 00006a40   00000020  00000020  00000000  RWIX
  ECAP4                 00006a60   00000020  00000020  00000000  RWIX
  ECAP5                 00006a80   00000020  00000020  00000000  RWIX
  ECAP6                 00006aa0   00000020  00000020  00000000  RWIX
  EQEP1                 00006b00   00000040  00000040  00000000  RWIX
  EQEP2                 00006b40   00000040  00000040  00000000  RWIX
  GPIOCTRL              00006f80   00000040  0000002e  00000012  RWIX
  GPIODAT               00006fc0   00000020  00000020  00000000  RWIX
  GPIOINT               00006fe0   00000020  0000000a  00000016  RWIX
  SYSTEM                00007010   00000020  00000020  00000000  RWIX
  SPIA                  00007040   00000010  00000010  00000000  RWIX
  SCIA                  00007050   00000010  00000010  00000000  RWIX
  XINTRUPT              00007070   00000010  00000010  00000000  RWIX
  ADC                   00007100   00000020  0000001e  00000002  RWIX
  SCIB                  00007750   00000010  00000010  00000000  RWIX
  SCIC                  00007770   00000010  00000010  00000000  RWIX
  I2CA                  00007900   00000040  00000022  0000001e  RWIX
  RAML0                 00008000   00000600  000003b1  0000024f  RWIX
  RAML1L7               00008600   00005800  00005760  000000a0  RWIX
  RAML1L7_1             0000de00   00000800  00000720  000000e0  RWIX
  RAML1L7_2             0000e600   00001a00  00001340  000006c0  RWIX
  ZONE7                 00200000   00040000  00033eac  0000c154  RWIX
  FLASH                 00300000   0002fd00  000234a7  0000c859  RWIX
  SYSTEM_INFO           0032fd00   00000200  000000e0  00000120  RWIX
  CODE_START1           0032fffe   00000002  00000002  00000000  RWIX
  CSM_RSVD              0033ff80   00000076  00000000  00000076  RWIX
  BEGIN                 0033fff6   00000002  00000000  00000002  RWIX
  CSM_PWL               0033fff8   00000008  00000000  00000008  RWIX
  ADC_CAL               00380080   00000009  00000007  00000002  RWIX
  PARTID                00380090   00000001  00000001  00000000  RWIX
  OTP                   00380400   00000400  00000000  00000400  RWIX
  IQTABLES              003fe000   00000b50  00000b50  00000000  RWIX
  IQTABLES2             003feb50   0000008c  00000000  0000008c  RWIX
  FPUTABLES             003febdc   000006a0  00000000  000006a0  RWIX
  RESET                 003fffc0   00000002  00000000  00000002  RWIX
  VECTORS               003fffc2   0000003e  00000000  0000003e  RWIX

PAGE 1:
  CSM_PWL               0033fff8   00000008  00000008  00000000  RWIX


SECTION ALLOCATION MAP

 output                                  attributes/
section   page    origin      length       input sections
--------  ----  ----------  ----------   ----------------
.cinit     0    00322e1c    00000654     
                  00322e1c    000001bc     temper_common.obj (.cinit)
                  00322fd8    000000b7     tasknet_master.obj (.cinit)
                  0032308f    0000008f     tasknet_PC.obj (.cinit)
                  0032311e    00000077     task_ethercatmaster.obj (.cinit)
                  00323195    00000070     tasknet_HMI.obj (.cinit)
                  00323205    00000043     firmware_28335.lib : eeprom.obj (.cinit)
                  00323248    00000040     kernel_28335.lib : ethercatmaster.obj (.cinit)
                  00323288    0000002a     drive_28335.lib : _ax88796b.obj (.cinit)
                  003232b2    0000002a     rts2800_fpu32.lib : defs.c.obj (.cinit)
                  003232dc    00000029                       : write.c.obj (.cinit)
                  00323305    00000022     taskEtherCATMaster_app.obj (.cinit)
                  00323327    00000021     firmware_28335.lib : ethernet.obj (.cinit)
                  00323348    0000001e     main.obj (.cinit)
                  00323366    0000001a     drive_28335.lib : _timer_28335.obj (.cinit)
                  00323380    00000015                     : _eCan_28335.obj (.cinit)
                  00323395    00000014     CommComp_Driver.obj (.cinit)
                  003233a9    00000013     Rexroth.obj (.cinit)
                  003233bc    00000012     CommComp_PwmtrCard.obj (.cinit)
                  003233ce    00000010     drive_28335.lib : _io.obj (.cinit)
                  003233de    0000000f                     : _led_28335.obj (.cinit)
                  003233ed    0000000e     rts2800_fpu32.lib : exit.c.obj (.cinit)
                  003233fb    0000000d     task.obj (.cinit)
                  00323408    0000000c     initial.obj (.cinit)
                  00323414    0000000c     temper_alg.obj (.cinit)
                  00323420    0000000b     taskio.obj (.cinit)
                  0032342b    00000006     CommComp_HTRobot.obj (.cinit)
                  00323431    00000005     DSP2833x_TI.lib : DSP2833x_DefaultIsr.obj (.cinit)
                  00323436    00000005     rts2800_fpu32.lib : _lock.c.obj (.cinit:__lock)
                  0032343b    00000005                       : _lock.c.obj (.cinit:__unlock)
                  00323440    00000005     drive_28335.lib : _spi.obj (.cinit)
                  00323445    00000005     tasknet.obj (.cinit)
                  0032344a    00000004     CommComp_CANOpenMaster.obj (.cinit)
                  0032344e    00000004     CommComp_RemoteIO.obj (.cinit)
                  00323452    00000004     CommComp_TemperCard.obj (.cinit)
                  00323456    00000004     drive_28335.lib : _ltc1864_28335.obj (.cinit)
                  0032345a    00000004     kernel_28335.lib : ethercatmaster_Sync.obj (.cinit)
                  0032345e    00000004     rts2800_fpu32.lib : errno.c.obj (.cinit)
                  00323462    00000004                       : fopen.c.obj (.cinit)
                  00323466    00000004                       : memory.c.obj (.cinit)
                  0032346a    00000004                       : open.c.obj (.cinit)
                  0032346e    00000002     --HOLE-- [fill = 0]

.pinit     0    00300000    00000000     UNINITIALIZED

ramfuncs   0    00300000    00000355     RUN ADDR = 00008000
                  00300000    000002bd     kernel_28335.lib : memory_manager.obj (ramfuncs)
                  003002bd    00000079     main.obj (ramfuncs)
                  00300336    0000001b     DSP2833x_TI.lib : DSP2833x_SysCtrl.obj (ramfuncs)
                  00300351    00000004                     : DSP2833x_usDelay.obj (ramfuncs)

codestart1 
*          0    0032fffe    00000002     
                  0032fffe    00000002     DSP2833x_CodeStartBranch.obj (codestart1)

.stack     0    00000000    00000400     UNINITIALIZED
                  00000000    00000400     --HOLE--

DevEmuRegsFile 
*          0    00000880    000000d0     UNINITIALIZED
                  00000880    000000d0     DSP2833x_TI.lib : DSP2833x_GlobalVariableDefs.obj (DevEmuRegsFile)

FlashRegsFile 
*          0    00000a80    00000008     UNINITIALIZED
                  00000a80    00000008     DSP2833x_TI.lib : DSP2833x_GlobalVariableDefs.obj (FlashRegsFile)

CsmRegsFile 
*          0    00000ae0    00000010     UNINITIALIZED
                  00000ae0    00000010     DSP2833x_TI.lib : DSP2833x_GlobalVariableDefs.obj (CsmRegsFile)

AdcMirrorFile 
*          0    00000b00    00000010     UNINITIALIZED
                  00000b00    00000010     DSP2833x_TI.lib : DSP2833x_GlobalVariableDefs.obj (AdcMirrorFile)

XintfRegsFile 
*          0    00000b20    0000001e     UNINITIALIZED
                  00000b20    0000001e     DSP2833x_TI.lib : DSP2833x_GlobalVariableDefs.obj (XintfRegsFile)

CpuTimer0RegsFile 
*          0    00000c00    00000008     UNINITIALIZED
                  00000c00    00000008     DSP2833x_TI.lib : DSP2833x_GlobalVariableDefs.obj (CpuTimer0RegsFile)

CpuTimer1RegsFile 
*          0    00000c08    00000008     UNINITIALIZED
                  00000c08    00000008     DSP2833x_TI.lib : DSP2833x_GlobalVariableDefs.obj (CpuTimer1RegsFile)

CpuTimer2RegsFile 
*          0    00000c10    00000008     UNINITIALIZED
                  00000c10    00000008     DSP2833x_TI.lib : DSP2833x_GlobalVariableDefs.obj (CpuTimer2RegsFile)

PieCtrlRegsFile 
*          0    00000ce0    0000001a     UNINITIALIZED
                  00000ce0    0000001a     DSP2833x_TI.lib : DSP2833x_GlobalVariableDefs.obj (PieCtrlRegsFile)

PieVectTableFile 
*          0    00000d00    00000100     UNINITIALIZED
                  00000d00    00000100     DSP2833x_TI.lib : DSP2833x_GlobalVariableDefs.obj (PieVectTableFile)

DmaRegsFile 
*          0    00001000    000000e0     UNINITIALIZED
                  00001000    000000e0     DSP2833x_TI.lib : DSP2833x_GlobalVariableDefs.obj (DmaRegsFile)

McbspaRegsFile 
*          0    00005000    00000025     UNINITIALIZED
                  00005000    00000025     DSP2833x_TI.lib : DSP2833x_GlobalVariableDefs.obj (McbspaRegsFile)

McbspbRegsFile 
*          0    00005040    00000025     UNINITIALIZED
                  00005040    00000025     DSP2833x_TI.lib : DSP2833x_GlobalVariableDefs.obj (McbspbRegsFile)

ECanbRegsFile 
*          0    00006000    00000034     UNINITIALIZED
                  00006000    00000034     DSP2833x_TI.lib : DSP2833x_GlobalVariableDefs.obj (ECanbRegsFile)

ECanbLAMRegsFile 
*          0    00006040    00000040     UNINITIALIZED
                  00006040    00000040     DSP2833x_TI.lib : DSP2833x_GlobalVariableDefs.obj (ECanbLAMRegsFile)

ECanbMOTSRegsFile 
*          0    00006080    00000040     UNINITIALIZED
                  00006080    00000040     DSP2833x_TI.lib : DSP2833x_GlobalVariableDefs.obj (ECanbMOTSRegsFile)

ECanbMOTORegsFile 
*          0    000060c0    00000040     UNINITIALIZED
                  000060c0    00000040     DSP2833x_TI.lib : DSP2833x_GlobalVariableDefs.obj (ECanbMOTORegsFile)

ECanbMboxesFile 
*          0    00006100    00000100     UNINITIALIZED
                  00006100    00000100     DSP2833x_TI.lib : DSP2833x_GlobalVariableDefs.obj (ECanbMboxesFile)

ECanaRegsFile 
*          0    00006200    00000034     UNINITIALIZED
                  00006200    00000034     DSP2833x_TI.lib : DSP2833x_GlobalVariableDefs.obj (ECanaRegsFile)

ECanaLAMRegsFile 
*          0    00006240    00000040     UNINITIALIZED
                  00006240    00000040     DSP2833x_TI.lib : DSP2833x_GlobalVariableDefs.obj (ECanaLAMRegsFile)

ECanaMOTSRegsFile 
*          0    00006280    00000040     UNINITIALIZED
                  00006280    00000040     DSP2833x_TI.lib : DSP2833x_GlobalVariableDefs.obj (ECanaMOTSRegsFile)

ECanaMOTORegsFile 
*          0    000062c0    00000040     UNINITIALIZED
                  000062c0    00000040     DSP2833x_TI.lib : DSP2833x_GlobalVariableDefs.obj (ECanaMOTORegsFile)

ECanaMboxesFile 
*          0    00006300    00000100     UNINITIALIZED
                  00006300    00000100     DSP2833x_TI.lib : DSP2833x_GlobalVariableDefs.obj (ECanaMboxesFile)

EPwm1RegsFile 
*          0    00006800    00000022     UNINITIALIZED
                  00006800    00000022     DSP2833x_TI.lib : DSP2833x_GlobalVariableDefs.obj (EPwm1RegsFile)

EPwm2RegsFile 
*          0    00006840    00000022     UNINITIALIZED
                  00006840    00000022     DSP2833x_TI.lib : DSP2833x_GlobalVariableDefs.obj (EPwm2RegsFile)

EPwm3RegsFile 
*          0    00006880    00000022     UNINITIALIZED
                  00006880    00000022     DSP2833x_TI.lib : DSP2833x_GlobalVariableDefs.obj (EPwm3RegsFile)

EPwm4RegsFile 
*          0    000068c0    00000022     UNINITIALIZED
                  000068c0    00000022     DSP2833x_TI.lib : DSP2833x_GlobalVariableDefs.obj (EPwm4RegsFile)

EPwm5RegsFile 
*          0    00006900    00000022     UNINITIALIZED
                  00006900    00000022     DSP2833x_TI.lib : DSP2833x_GlobalVariableDefs.obj (EPwm5RegsFile)

EPwm6RegsFile 
*          0    00006940    00000022     UNINITIALIZED
                  00006940    00000022     DSP2833x_TI.lib : DSP2833x_GlobalVariableDefs.obj (EPwm6RegsFile)

ECap1RegsFile 
*          0    00006a00    00000020     UNINITIALIZED
                  00006a00    00000020     DSP2833x_TI.lib : DSP2833x_GlobalVariableDefs.obj (ECap1RegsFile)

ECap2RegsFile 
*          0    00006a20    00000020     UNINITIALIZED
                  00006a20    00000020     DSP2833x_TI.lib : DSP2833x_GlobalVariableDefs.obj (ECap2RegsFile)

ECap3RegsFile 
*          0    00006a40    00000020     UNINITIALIZED
                  00006a40    00000020     DSP2833x_TI.lib : DSP2833x_GlobalVariableDefs.obj (ECap3RegsFile)

ECap4RegsFile 
*          0    00006a60    00000020     UNINITIALIZED
                  00006a60    00000020     DSP2833x_TI.lib : DSP2833x_GlobalVariableDefs.obj (ECap4RegsFile)

ECap5RegsFile 
*          0    00006a80    00000020     UNINITIALIZED
                  00006a80    00000020     DSP2833x_TI.lib : DSP2833x_GlobalVariableDefs.obj (ECap5RegsFile)

ECap6RegsFile 
*          0    00006aa0    00000020     UNINITIALIZED
                  00006aa0    00000020     DSP2833x_TI.lib : DSP2833x_GlobalVariableDefs.obj (ECap6RegsFile)

EQep1RegsFile 
*          0    00006b00    00000040     UNINITIALIZED
                  00006b00    00000040     DSP2833x_TI.lib : DSP2833x_GlobalVariableDefs.obj (EQep1RegsFile)

EQep2RegsFile 
*          0    00006b40    00000040     UNINITIALIZED
                  00006b40    00000040     DSP2833x_TI.lib : DSP2833x_GlobalVariableDefs.obj (EQep2RegsFile)

GpioCtrlRegsFile 
*          0    00006f80    0000002e     UNINITIALIZED
                  00006f80    0000002e     DSP2833x_TI.lib : DSP2833x_GlobalVariableDefs.obj (GpioCtrlRegsFile)

GpioDataRegsFile 
*          0    00006fc0    00000020     UNINITIALIZED
                  00006fc0    00000020     DSP2833x_TI.lib : DSP2833x_GlobalVariableDefs.obj (GpioDataRegsFile)

GpioIntRegsFile 
*          0    00006fe0    0000000a     UNINITIALIZED
                  00006fe0    0000000a     DSP2833x_TI.lib : DSP2833x_GlobalVariableDefs.obj (GpioIntRegsFile)

SysCtrlRegsFile 
*          0    00007010    00000020     UNINITIALIZED
                  00007010    00000020     DSP2833x_TI.lib : DSP2833x_GlobalVariableDefs.obj (SysCtrlRegsFile)

SpiaRegsFile 
*          0    00007040    00000010     UNINITIALIZED
                  00007040    00000010     DSP2833x_TI.lib : DSP2833x_GlobalVariableDefs.obj (SpiaRegsFile)

SciaRegsFile 
*          0    00007050    00000010     UNINITIALIZED
                  00007050    00000010     DSP2833x_TI.lib : DSP2833x_GlobalVariableDefs.obj (SciaRegsFile)

XIntruptRegsFile 
*          0    00007070    00000010     UNINITIALIZED
                  00007070    00000010     DSP2833x_TI.lib : DSP2833x_GlobalVariableDefs.obj (XIntruptRegsFile)

AdcRegsFile 
*          0    00007100    0000001e     UNINITIALIZED
                  00007100    0000001e     DSP2833x_TI.lib : DSP2833x_GlobalVariableDefs.obj (AdcRegsFile)

ScibRegsFile 
*          0    00007750    00000010     UNINITIALIZED
                  00007750    00000010     DSP2833x_TI.lib : DSP2833x_GlobalVariableDefs.obj (ScibRegsFile)

ScicRegsFile 
*          0    00007770    00000010     UNINITIALIZED
                  00007770    00000010     DSP2833x_TI.lib : DSP2833x_GlobalVariableDefs.obj (ScicRegsFile)

I2caRegsFile 
*          0    00007900    00000022     UNINITIALIZED
                  00007900    00000022     DSP2833x_TI.lib : DSP2833x_GlobalVariableDefs.obj (I2caRegsFile)

.ebss      0    00008600    000055e0     UNINITIALIZED
                  00008600    00000f38     task_ethercatmaster.obj (.ebss)
                  00009538    00000008     initial.obj (.ebss)
                  00009540    00000b6c     CommComp_RemoteIO.obj (.ebss)
                  0000a0ac    00000012     main.obj (.ebss)
                  0000a0be    00000002     DSP2833x_TI.lib : DSP2833x_DefaultIsr.obj (.ebss)
                  0000a0c0    00000830     tasknet_HMI.obj (.ebss)
                  0000a8f0    00000010     drive_28335.lib : _adc_28335.obj (.ebss)
                  0000a900    000005f0     CommComp_EtherCat.obj (.ebss)
                  0000aef0    00000010     kernel_28335.lib : ethercatmaster.obj (.ebss)
                  0000af00    000004a8     CommComp_Factory.obj (.ebss)
                  0000b3a8    00000018     DSP2833x_TI.lib : DSP2833x_CpuTimers.obj (.ebss)
                  0000b3c0    00000488     tasknet_master.obj (.ebss)
                  0000b848    0000002a     CommComp_CANOpenMaster.obj (.ebss)
                  0000b872    0000000e     drive_28335.lib : _led_28335.obj (.ebss)
                  0000b880    00000440     temper_common.obj (.ebss)
                  0000bcc0    00000400     CANOpenCommon.obj (.ebss)
                  0000c0c0    00000278     CommComp_turntable.obj (.ebss)
                  0000c338    00000008     rts2800_fpu32.lib : hostopen.c.obj (.ebss)
                  0000c340    0000025a     tasknet_PC.obj (.ebss)
                  0000c59a    0000001e     drive_28335.lib : _io.obj (.ebss)
                  0000c5b8    00000008     rts2800_fpu32.lib : memory.c.obj (.ebss)
                  0000c5c0    00000240     CommComp_TemperCard.obj (.ebss)
                  0000c800    000001e4     taskEtherCATMaster_app.obj (.ebss)
                  0000c9e4    0000001c     Task_Led.obj (.ebss)
                  0000ca00    000001d4     CommComp_Driver.obj (.ebss)
                  0000cbd4    0000000e     drive_28335.lib : _timer_28335.obj (.ebss)
                  0000cbe2    0000000d                     : _ltc1864_28335.obj (.ebss)
                  0000cbef    00000001     kernel_28335.lib : ethercatmaster_Sync.obj (.ebss)
                  0000cbf0    00000006                      : tftp_server.obj (.ebss)
                  0000cbf6    00000006     rts2800_fpu32.lib : exit.c.obj (.ebss)
                  0000cbfc    00000004     Error_App.obj (.ebss)
                  0000cc00    000001b8     GeneralRW.obj (.ebss)
                  0000cdb8    00000004     drive_28335.lib : _spi.obj (.ebss)
                  0000cdbc    00000004     kernel_28335.lib : memory_manager.obj (.ebss)
                  0000cdc0    00000160     rts2800_fpu32.lib : defs.c.obj (.ebss)
                  0000cf20    00000003     tasknet.obj (.ebss)
                  0000cf23    00000003     temper_alg.obj (.ebss)
                  0000cf26    00000002     rts2800_fpu32.lib : _lock.c.obj (.ebss:__lock)
                  0000cf28    00000002                       : _lock.c.obj (.ebss:__unlock)
                  0000cf2a    00000001                       : errno.c.obj (.ebss)
                  0000cf2b    00000001                       : fopen.c.obj (.ebss)
                  0000cf2c    00000001                       : open.c.obj (.ebss)
                  0000cf2d    00000013     --HOLE--
                  0000cf40    00000142     Rexroth.obj (.ebss)
                  0000d082    0000003e     --HOLE--
                  0000d0c0    0000012a     taskio.obj (.ebss)
                  0000d1ea    00000016     --HOLE--
                  0000d200    00000128     Access.obj (.ebss)
                  0000d328    00000018     --HOLE--
                  0000d340    00000124     task.obj (.ebss)
                  0000d464    0000001c     --HOLE--
                  0000d480    00000120     CommComp_PwmtrCard.obj (.ebss)
                  0000d5a0    00000020     --HOLE--
                  0000d5c0    00000108     firmware_28335.lib : ethernet.obj (.ebss)
                  0000d6c8    00000038     --HOLE--
                  0000d700    000000f0     Task_Watch.obj (.ebss)
                  0000d7f0    00000010     --HOLE--
                  0000d800    000000d4     CommComp_HTRobot.obj (.ebss)
                  0000d8d4    0000002c     --HOLE--
                  0000d900    000000d4     dbfunc.obj (.ebss)
                  0000d9d4    0000002c     --HOLE--
                  0000da00    0000009a     drive_28335.lib : _ax88796b.obj (.ebss)
                  0000da9a    00000026     --HOLE--
                  0000dac0    00000088     rts2800_fpu32.lib : write.c.obj (.ebss)
                  0000db48    00000038     --HOLE--
                  0000db80    00000060     drive_28335.lib : _eCan_28335.obj (.ebss)

.esysmem   0    0000dbe0    00000180     UNINITIALIZED
                  0000dbe0    00000001     rts2800_fpu32.lib : memory.c.obj (.esysmem)
                  0000dbe1    0000017f     --HOLE--

.cio       0    0000e400    00000120     UNINITIALIZED
                  0000e400    00000120     rts2800_fpu32.lib : trgmsg.c.obj (.cio)

IQmath     0    00300355    0000005c     RUN ADDR = 00008355
                  00300355    00000047     IQmath_fpu32.lib : IQ24div.obj (IQmath)
                  0030039c    00000015                      : IQ24rsmpy.obj (IQmath)

system     0    0032fd00    000000e0     
                  0032fd00    000000e0     system.obj (system)

IQmathTables 
*          0    003fe000    00000b50     NOLOAD SECTION
                  003fe000    00000b50     IQmath_fpu32.lib : IQmathTables.obj (IQmathTables)

heap       0    0000de00    00000600     UNINITIALIZED
                  0000de00    00000600     main.obj (heap)

EthernetBuffer 
*          0    0000e600    00001340     UNINITIALIZED
                  0000e600    00001080     firmware_28335.lib : ethernet.obj (EthernetBuffer)
                  0000f680    00000280     tasknet_PC.obj (EthernetBuffer)
                  0000f900    00000040     firmware_28335.lib : eeprom.obj (EthernetBuffer)

Database   0    00203000    00001ce4     UNINITIALIZED
                  00203000    00001ce4     database.obj (Database)

TemperCtl 
*          0    00208000    00002a00     UNINITIALIZED
                  00208000    00002a00     temper_common.obj (TemperCtl)

ECMaster   0    0020dc00    0002f7c8     UNINITIALIZED
                  0020dc00    0002f7c8     task_ethercatmaster.obj (ECMaster)

.reset     0    003fffc0    00000002     DSECT
                  003fffc0    00000002     rts2800_fpu32.lib : boot28.asm.obj (.reset)

vectors    0    003fffc2    00000000     DSECT

.adc_cal   0    00380080    00000007     NOLOAD SECTION
                  00380080    00000007     DSP2833x_TI.lib : DSP2833x_ADC_cal.obj (.adc_cal)

PartIdRegsFile 
*          0    00380090    00000001     UNINITIALIZED
                  00380090    00000001     DSP2833x_TI.lib : DSP2833x_GlobalVariableDefs.obj (PartIdRegsFile)

CsmPwlFile 
*          1    0033fff8    00000008     UNINITIALIZED
                  0033fff8    00000008     DSP2833x_TI.lib : DSP2833x_GlobalVariableDefs.obj (CsmPwlFile)

.text      0    003003b2    0001b8ee     
                  003003b2    00002a30     kernel_28335.lib : ethercatmaster.obj (.text)
                  00302de2    00001bb6     taskEtherCATMaster_app.obj (.text)
                  00304998    00001559     CommComp_RemoteIO.obj (.text)
                  00305ef1    00001064     tasknet_master.obj (.text)
                  00306f55    00001063     temper_common.obj (.text)
                  00307fb8    00000edf     kernel_28335.lib : tftp_server.obj (.text)
                  00308e97    00000e87                      : ethercatmaster_Sync.obj (.text)
                  00309d1e    00000e5c     DSP2833x_TI.lib : DSP2833x_DefaultIsr.obj (.text:retain)
                  0030ab7a    00000e0a     temper_alg.obj (.text)
                  0030b984    00000d6f     rts2800_fpu32.lib : _printfi.c.obj (.text)
                  0030c6f3    00000ce8     CommComp_turntable.obj (.text)
                  0030d3db    00000ba1     firmware_28335.lib : ethernet.obj (.text)
                  0030df7c    00000b74     drive_28335.lib : _ax88796b.obj (.text)
                  0030eaf0    0000098b     CommComp_CANOpenMaster.obj (.text)
                  0030f47b    000008fa     kernel_28335.lib : ethercatmaster_eoe.obj (.text)
                  0030fd75    000008a2     drive_28335.lib : _eCan_28335.obj (.text)
                  00310617    0000086a     tasknet_PC.obj (.text)
                  00310e81    0000085e     rts2800_fpu32.lib : _scanfi.c.obj (.text)
                  003116df    0000085c     kernel_28335.lib : ethercatmaster_coe.obj (.text)
                  00311f3b    00000846     CommComp_Driver.obj (.text)
                  00312781    00000832     CommComp_Factory.obj (.text)
                  00312fb3    00000810     Access.obj (.text)
                  003137c3    000007d9     kernel_28335.lib : rbtree.obj (.text)
                  00313f9c    00000727     dbfunc.obj (.text)
                  003146c3    00000713     GeneralRW.obj (.text)
                  00314dd6    00000709     CommComp_TemperCard.obj (.text)
                  003154df    00000638     kernel_28335.lib : ethercatmaster_foe.obj (.text)
                  00315b17    00000633     Watch.obj (.text)
                  0031614a    000005fa     tasknet_HMI.obj (.text)
                  00316744    00000438     CommComp_EtherCat.obj (.text)
                  00316b7c    000003f7     DSP2833x_TI.lib : DSP2833x_DMA.obj (.text)
                  00316f73    000003cf     task_ethercatmaster.obj (.text)
                  00317342    000003c6     kernel_28335.lib : memory.obj (.text)
                  00317708    0000036f     CommComp_HTRobot.obj (.text)
                  00317a77    00000361     database.obj (.text)
                  00317dd8    0000034d     task.obj (.text)
                  00318125    00000327     Rexroth.obj (.text)
                  0031844c    000002b9     firmware_28335.lib : ethernet_switch.obj (.text)
                  00318705    00000296     main.obj (.text)
                  0031899b    0000028a     rts2800_fpu32.lib : strtold.c.obj (.text)
                  00318c25    00000275     taskio.obj (.text)
                  00318e9a    00000203     rts2800_fpu32.lib : strtod.c.obj (.text)
                  0031909d    000001f4     CommComp_PwmtrCard.obj (.text)
                  00319291    000001d4     rts2800_fpu32.lib : memory.c.obj (.text)
                  00319465    000001a3     kernel_28335.lib : CalibrateAD.obj (.text)
                  00319608    000001a0     drive_28335.lib : _spi.obj (.text)
                  003197a8    00000178                     : _io.obj (.text)
                  00319920    0000016a     rts2800_fpu32.lib : strtoll.c.obj (.text)
                  00319a8a    00000157     kernel_28335.lib : memory_manager.obj (.text)
                  00319be1    0000013e     drive_28335.lib : _25lc256_28335.obj (.text)
                  00319d1f    0000012e     kernel_28335.lib : tftp.obj (.text)
                  00319e4d    00000122     rts2800_fpu32.lib : strtoull.c.obj (.text)
                  00319f6f    0000011b     DSP2833x_TI.lib : DSP2833x_Xintf.obj (.text)
                  0031a08a    00000109     Error_App.obj (.text)
                  0031a193    00000107     rts2800_fpu32.lib : ll_div28.asm.obj (.text)
                  0031a29a    000000f8     DSP2833x_TI.lib : DSP2833x_SysCtrl.obj (.text)
                  0031a392    000000f8     rts2800_fpu32.lib : fopen.c.obj (.text)
                  0031a48a    000000e2     drive_28335.lib : _ltc1864_28335.obj (.text)
                  0031a56c    000000dc     Task_Led.obj (.text)
                  0031a648    000000d6     rts2800_fpu32.lib : strtol.c.obj (.text)
                  0031a71e    000000d3     drive_28335.lib : _led_28335.obj (.text)
                  0031a7f1    000000b1     rts2800_fpu32.lib : strtoul.c.obj (.text)
                  0031a8a2    000000b0                       : fputs.c.obj (.text)
                  0031a952    000000ae                       : s_scalbn.c.obj (.text)
                  0031aa00    0000009e     kernel_28335.lib : CompPulse.obj (.text)
                  0031aa9e    0000009c     rts2800_fpu32.lib : fd_add28.asm.obj (.text)
                  0031ab3a    0000009b     drive_28335.lib : _gpio_28335.obj (.text)
                  0031abd5    00000001     rts2800_fpu32.lib : startup.c.obj (.text)
                  0031abd6    00000095                       : trgmsg.c.obj (.text)
                  0031ac6b    0000008b                       : fd_div28.asm.obj (.text)
                  0031acf6    00000089                       : setvbuf.c.obj (.text)
                  0031ad7f    00000088                       : fs_div28.asm.obj (.text)
                  0031ae07    00000083                       : fd_mpy28.asm.obj (.text)
                  0031ae8a    0000007b     Utils.obj (.text)
                  0031af05    00000073     DSP2833x_TI.lib : DSP2833x_CpuTimers.obj (.text)
                  0031af78    00000073     rts2800_fpu32.lib : fflush.c.obj (.text)
                  0031afeb    00000071                       : open.c.obj (.text)
                  0031b05c    0000006d                       : sscanf.c.obj (.text)
                  0031b0c9    00000067                       : _io_perm.c.obj (.text)
                  0031b130    00000065     Task_Watch.obj (.text)
                  0031b195    00000063     kernel_28335.lib : CompLed.obj (.text)
                  0031b1f8    00000061     rts2800_fpu32.lib : hostlseek.c.obj (.text)
                  0031b259    0000005f     CANOpenCommon.obj (.text)
                  0031b2b8    0000005f     rts2800_fpu32.lib : fclose.c.obj (.text)
                  0031b317    0000005a                       : s_frexp.c.obj (.text)
                  0031b371    0000005a                       : s_scalbnf.c.obj (.text)
                  0031b3cb    0000005a                       : snprintf.c.obj (.text)
                  0031b425    00000056                       : boot28.asm.obj (.text)
                  0031b47b    00000053     initial.obj (.text)
                  0031b4ce    00000053     rts2800_fpu32.lib : fputc.c.obj (.text)
                  0031b521    00000051                       : getdevice.c.obj (.text)
                  0031b572    00000050     firmware_28335.lib : eeprom.obj (.text)
                  0031b5c2    0000004f     drive_28335.lib : _timer_28335.obj (.text:retain)
                  0031b611    0000004d     taskTemper.obj (.text)
                  0031b65e    0000004c     drive_28335.lib : _encoder_28335.obj (.text)
                  0031b6aa    00000042     tasknet.obj (.text)
                  0031b6ec    00000040     rts2800_fpu32.lib : hostopen.c.obj (.text)
                  0031b72c    0000003f                       : hostread.c.obj (.text)
                  0031b76b    0000003e                       : hostrename.c.obj (.text)
                  0031b7a9    0000003d                       : fseek.c.obj (.text)
                  0031b7e6    00000038                       : hostwrite.c.obj (.text)
                  0031b81e    00000034                       : printf.c.obj (.text)
                  0031b852    00000033                       : close.c.obj (.text)
                  0031b885    00000031                       : atoi.c.obj (.text)
                  0031b8b6    00000030                       : ltoa.c.obj (.text)
                  0031b8e6    0000002a                       : fd_cmp28.asm.obj (.text)
                  0031b910    0000002a                       : l_div28.asm.obj (.text)
                  0031b93a    00000029                       : exit.c.obj (.text)
                  0031b963    00000029                       : hostclose.c.obj (.text)
                  0031b98c    00000028     DSP2833x_TI.lib : DSP2833x_PieCtrl.obj (.text)
                  0031b9b4    00000025     rts2800_fpu32.lib : s_copysign.c.obj (.text)
                  0031b9d9    00000024                       : cpy_tbl.c.obj (.text)
                  0031b9fd    00000024                       : hostunlink.c.obj (.text)
                  0031ba21    00000022                       : i_div28.asm.obj (.text)
                  0031ba43    00000021                       : fd_toi28.asm.obj (.text)
                  0031ba64    00000020     DSP2833x_TI.lib : DSP2833x_PieVect.obj (.text)
                  0031ba84    0000001f     rts2800_fpu32.lib : fd_tol28.asm.obj (.text)
                  0031baa3    0000001e                       : ll_cmp28.asm.obj (.text)
                  0031bac1    0000001e                       : strncpy.c.obj (.text)
                  0031badf    0000001d                       : i_tofd28.asm.obj (.text)
                  0031bafc    0000001c                       : fs_tofdfpu32.asm.obj (.text)
                  0031bb18    0000001c                       : l_tofd28.asm.obj (.text)
                  0031bb34    00000019                       : args_main.c.obj (.text)
                  0031bb4d    00000019                       : unlink.c.obj (.text)
                  0031bb66    00000019                       : write.c.obj (.text)
                  0031bb7f    00000018                       : ll_aox28.asm.obj (.text)
                  0031bb97    00000018                       : lseek.c.obj (.text)
                  0031bbaf    00000018                       : strncmp.c.obj (.text)
                  0031bbc7    00000015                       : memcmp.c.obj (.text)
                  0031bbdc    00000014                       : ll_mpy28.asm.obj (.text)
                  0031bbf0    00000012                       : s_copysignf.c.obj (.text)
                  0031bc02    00000010                       : memchr.c.obj (.text)
                  0031bc12    0000000e                       : fd_sub28.asm.obj (.text)
                  0031bc20    0000000d                       : memccpy.c.obj (.text)
                  0031bc2d    0000000c                       : strchr.c.obj (.text)
                  0031bc39    0000000b                       : strrchr.c.obj (.text)
                  0031bc44    0000000b                       : u_div28.asm.obj (.text)
                  0031bc4f    0000000a                       : strcmp.c.obj (.text)
                  0031bc59    00000009     drive_28335.lib : _adc_28335.obj (.text)
                  0031bc62    00000009     rts2800_fpu32.lib : _lock.c.obj (.text)
                  0031bc6b    00000009                       : fd_neg28.asm.obj (.text)
                  0031bc74    00000009                       : wcslen.c.obj (.text)
                  0031bc7d    00000008     DSP2833x_CodeStartBranch.obj (.text)
                  0031bc85    00000008     rts2800_fpu32.lib : strlen.c.obj (.text)
                  0031bc8d    00000005     drive_28335.lib : _dac_28335.obj (.text)
                  0031bc92    00000005     rts2800_fpu32.lib : strcpy.c.obj (.text)
                  0031bc97    00000004     kernel_28335.lib : version_kernel.obj (.text)
                  0031bc9b    00000003     rts2800_fpu32.lib : remove.c.obj (.text)
                  0031bc9e    00000002                       : pre_init.c.obj (.text)

.econst    0    0031bca0    0000717c     
                  0031bca0    00002a1e     database.obj (.econst:_gc_asAttribInfo)
                  0031e6be    000014f4     database.obj (.econst:_uc_asBlock_M28)
                  0031fbb2    00000690     database.obj (.econst:_uc_asBlock_TEMPER)
                  00320242    0000030e     kernel_28335.lib : ethercatmaster_foe.obj (.econst:.string)
                  00320550    0000024c     database.obj (.econst:_uc_asBlock_REXROTH)
                  0032079c    000001cc     kernel_28335.lib : tftp_server.obj (.econst:.string)
                  00320968    000001b0     database.obj (.econst:_uc_asBlock_AXISCARD)
                  00320b18    00000140     kernel_28335.lib : memory_manager.obj (.econst:.string)
                  00320c58    00000110                      : tftp.obj (.econst:.string)
                  00320d68    00000101     rts2800_fpu32.lib : ctype.c.obj (.econst:.string:__ctypes_)
                  00320e69    00000001     dbfunc.obj (.econst:_$P$T3$4)
                  00320e6a    00000100     DSP2833x_TI.lib : DSP2833x_PieVect.obj (.econst:_PieVectTableInit)
                  00320f6a    000000f6     taskEtherCATMaster_app.obj (.econst:.string)
                  00321060    000000f6     database.obj (.econst:_gc_asGroup)
                  00321156    000000ee     kernel_28335.lib : ethercatmaster_eoe.obj (.econst:.string)
                  00321244    000000d6     database.obj (.econst:_uc_asFindInitTab)
                  0032131a    000000cc     kernel_28335.lib : memory.obj (.econst:.string)
                  003213e6    000000b8                      : rbtree.obj (.econst:.string)
                  0032149e    000000b0     database.obj (.econst:_uc_asBlock_POWERCARD)
                  0032154e    000000a4     kernel_28335.lib : ethercatmaster.obj (.econst:.string)
                  003215f2    00000074     database.obj (.econst:_uc_asBlock_PICKER)
                  00321666    0000006f     firmware_28335.lib : ethernet_switch.obj (.econst:.string)
                  003216d5    00000001     dbfunc.obj (.econst:_$P$T5$6)
                  003216d6    0000006c     CommComp_RemoteIO.obj (.econst:_$P$T3$4)
                  00321742    0000006c     CommComp_RemoteIO.obj (.econst:_$P$T6$7)
                  003217ae    00000062     database.obj (.econst:_uc_afCallback)
                  00321810    00000060     CommComp_turntable.obj (.econst:_$P$T3$4)
                  00321870    0000005c     kernel_28335.lib : ethercatmaster_coe.obj (.econst:.string)
                  003218cc    00000058     CommComp_TemperCard.obj (.econst:_$P$T1$2)
                  00321924    00000054     CommComp_RemoteIO.obj (.econst:_$P$T1$2)
                  00321978    00000050     tasknet_master.obj (.econst:_g_CMDMap)
                  003219c8    00000048     database.obj (.econst:_uc_asBlock_MT_HUB_8A)
                  00321a10    00000048     database.obj (.econst:_uc_asBlock_TEMPERCARD)
                  00321a58    00000044     CommComp_RemoteIO.obj (.econst:_$P$T0$1)
                  00321a9c    00000044     CommComp_TemperCard.obj (.econst:_$P$T0$1)
                  00321ae0    00000040     rts2800_fpu32.lib : strtold.c.obj (.econst:_digits)
                  00321b20    0000003c     CommComp_RemoteIO.obj (.econst:_$P$T4$5)
                  00321b5c    00000038     firmware_28335.lib : ethernet.obj (.econst:.string)
                  00321b94    0000002c     tasknet_PC.obj (.econst:_g_PC_commmap)
                  00321bc0    0000002c     tasknet_HMI.obj (.econst:_g_commmap)
                  00321bec    0000002c     database.obj (.econst:_uc_asBlock_PARKER_COMPAX3_FLUID)
                  00321c18    0000002b     kernel_28335.lib : tftp_server.obj (.econst:.string:_$P$T13$14)
                  00321c43    00000029                      : tftp_server.obj (.econst:.string:_$P$T16$17)
                  00321c6c    00000029                      : tftp_server.obj (.econst:.string:_$P$T17$18)
                  00321c95    00000029     firmware_28335.lib : ethernet_switch.obj (.econst:.string:_$P$T5$6)
                  00321cbe    00000028     kernel_28335.lib : tftp_server.obj (.econst:.string:_$P$T15$16)
                  00321ce6    00000028                      : ethercatmaster_coe.obj (.econst:.string:_$P$T4$5)
                  00321d0e    00000028     CommComp_RemoteIO.obj (.econst:_$P$T7$8)
                  00321d36    00000027     kernel_28335.lib : rbtree.obj (.econst:.string:_$P$T10$11)
                  00321d5d    00000027                      : tftp_server.obj (.econst:.string:_$P$T14$15)
                  00321d84    00000027                      : rbtree.obj (.econst:.string:_$P$T5$6)
                  00321dab    00000027                      : rbtree.obj (.econst:.string:_$P$T7$8)
                  00321dd2    00000026                      : rbtree.obj (.econst:.string:_$P$T11$12)
                  00321df8    00000026                      : rbtree.obj (.econst:.string:_$P$T4$5)
                  00321e1e    00000026                      : ethercatmaster_coe.obj (.econst:.string:_$P$T6$7)
                  00321e44    00000026                      : rbtree.obj (.econst:.string:_$P$T6$7)
                  00321e6a    00000026     firmware_28335.lib : ethernet_switch.obj (.econst:.string:_$P$T8$9)
                  00321e90    00000026     kernel_28335.lib : rbtree.obj (.econst:.string:_$P$T9$10)
                  00321eb6    00000026     rts2800_fpu32.lib : _printfi.c.obj (.econst:.string)
                  00321edc    00000025     kernel_28335.lib : rbtree.obj (.econst:.string:_$P$T2$3)
                  00321f01    00000025                      : tftp_server.obj (.econst:.string:_$P$T20$21)
                  00321f26    00000025                      : rbtree.obj (.econst:.string:_$P$T3$4)
                  00321f4b    00000025                      : tftp_server.obj (.econst:.string:_$P$T31$32)
                  00321f70    00000025                      : tftp_server.obj (.econst:.string:_$P$T38$39)
                  00321f95    00000025                      : tftp_server.obj (.econst:.string:_$P$T40$41)
                  00321fba    00000025                      : ethercatmaster_coe.obj (.econst:.string:_$P$T5$6)
                  00321fdf    00000025                      : rbtree.obj (.econst:.string:_$P$T8$9)
                  00322004    00000024                      : tftp_server.obj (.econst:.string:_$P$T19$20)
                  00322028    00000024                      : ethercatmaster_coe.obj (.econst:.string:_$P$T3$4)
                  0032204c    00000024                      : tftp_server.obj (.econst:.string:_$P$T36$37)
                  00322070    00000024                      : tftp_server.obj (.econst:.string:_$P$T37$38)
                  00322094    00000024                      : tftp_server.obj (.econst:.string:_$P$T5$6)
                  003220b8    00000024     firmware_28335.lib : ethernet_switch.obj (.econst:.string:_$P$T7$8)
                  003220dc    00000024     CommComp_RemoteIO.obj (.econst:_$P$T5$6)
                  00322100    00000024     rts2800_fpu32.lib : strtold.c.obj (.econst:_powerof10)
                  00322124    00000024     database.obj (.econst:_uc_asBlock_GERMANJET)
                  00322148    00000023     kernel_28335.lib : tftp_server.obj (.econst:.string:_$P$T32$33)
                  0032216b    00000023                      : tftp_server.obj (.econst:.string:_$P$T34$35)
                  0032218e    00000022                      : tftp_server.obj (.econst:.string:_$P$T33$34)
                  003221b0    00000022                      : ethercatmaster_eoe.obj (.econst:.string:_$P$T8$9)
                  003221d2    00000022                      : tftp_server.obj (.econst:.string:_$P$T9$10)
                  003221f4    00000021     firmware_28335.lib : ethernet_switch.obj (.econst:.string:_$P$T0$1)
                  00322215    00000021     kernel_28335.lib : tftp_server.obj (.econst:.string:_$P$T10$11)
                  00322236    00000021                      : tftp_server.obj (.econst:.string:_$P$T35$36)
                  00322257    00000021                      : tftp_server.obj (.econst:.string:_$P$T39$40)
                  00322278    00000021     main.obj (.econst:.string)
                  00322299    00000020     firmware_28335.lib : ethernet.obj (.econst:.string:_$P$T0$1)
                  003222b9    00000020     kernel_28335.lib : tftp_server.obj (.econst:.string:_$P$T11$12)
                  003222d9    00000020                      : ethercatmaster_eoe.obj (.econst:.string:_$P$T13$14)
                  003222f9    00000020                      : tftp_server.obj (.econst:.string:_$P$T18$19)
                  00322319    00000020     firmware_28335.lib : ethernet_switch.obj (.econst:.string:_$P$T6$7)
                  00322339    00000001     kernel_28335.lib : ethercatmaster.obj (.econst:_$P$T8$9)
                  0032233a    00000020     rts2800_fpu32.lib : strtod.c.obj (.econst:_digits)
                  0032235a    0000001f     kernel_28335.lib : tftp_server.obj (.econst:.string:_$P$T12$13)
                  00322379    0000001f                      : rbtree.obj (.econst:.string:_$P$T18$19)
                  00322398    0000001f                      : tftp_server.obj (.econst:.string:_$P$T23$24)
                  003223b7    0000001f                      : tftp_server.obj (.econst:.string:_$P$T7$8)
                  003223d6    0000001f                      : tftp_server.obj (.econst:.string:_$P$T8$9)
                  003223f5    0000001e     firmware_28335.lib : ethernet_switch.obj (.econst:.string:_$P$T1$2)
                  00322413    0000001e     kernel_28335.lib : ethercatmaster_eoe.obj (.econst:.string:_$P$T1$2)
                  00322431    0000001e                      : tftp_server.obj (.econst:.string:_$P$T22$23)
                  0032244f    0000001e                      : tftp_server.obj (.econst:.string:_$P$T30$31)
                  0032246d    0000001e                      : tftp_server.obj (.econst:.string:_$P$T42$43)
                  0032248b    0000001e                      : ethercatmaster_eoe.obj (.econst:.string:_$P$T5$6)
                  003224a9    0000001e                      : ethercatmaster_eoe.obj (.econst:.string:_$P$T7$8)
                  003224c7    00000001     Task_Led.obj (.econst:_LEDSHOW_OFF)
                  003224c8    0000001e     kernel_28335.lib : ethercatmaster.obj (.econst:_cnst_DealEtherCatFunc)
                  003224e6    0000001d                      : rbtree.obj (.econst:.string:_$P$T17$18)
                  00322503    0000001d                      : ethercatmaster_coe.obj (.econst:.string:_$P$T2$3)
                  00322520    0000001d                      : ethercatmaster_eoe.obj (.econst:.string:_$P$T2$3)
                  0032253d    0000001d                      : ethercatmaster_eoe.obj (.econst:.string:_$P$T3$4)
                  0032255a    0000001d                      : ethercatmaster_eoe.obj (.econst:.string:_$P$T4$5)
                  00322577    0000001d                      : tftp_server.obj (.econst:.string:_$P$T41$42)
                  00322594    0000001d                      : ethercatmaster_eoe.obj (.econst:.string:_$P$T6$7)
                  003225b1    0000001c                      : ethercatmaster_eoe.obj (.econst:.string:_$P$T15$16)
                  003225cd    0000001c     firmware_28335.lib : ethernet_switch.obj (.econst:.string:_$P$T2$3)
                  003225e9    0000001c     kernel_28335.lib : tftp_server.obj (.econst:.string:_$P$T21$22)
                  00322605    0000001c                      : tftp_server.obj (.econst:.string:_$P$T27$28)
                  00322621    0000001c     firmware_28335.lib : ethernet_switch.obj (.econst:.string:_$P$T3$4)
                  0032263d    00000001     kernel_28335.lib : CompPulse.obj (.econst:_uc_assPulse)
                  0032263e    0000001c     rts2800_fpu32.lib : _printfi.c.obj (.econst)
                  0032265a    0000001c                       : s_scalbn.c.obj (.econst)
                  00322676    0000001b     kernel_28335.lib : ethercatmaster_eoe.obj (.econst:.string:_$P$T12$13)
                  00322691    0000001b                      : ethercatmaster_eoe.obj (.econst:.string:_$P$T14$15)
                  003226ac    0000001b                      : rbtree.obj (.econst:.string:_$P$T19$20)
                  003226c7    0000001b                      : rbtree.obj (.econst:.string:_$P$T21$22)
                  003226e2    0000001b                      : tftp_server.obj (.econst:.string:_$P$T26$27)
                  003226fd    0000001b     firmware_28335.lib : ethernet_switch.obj (.econst:.string:_$P$T4$5)
                  00322718    0000001b     kernel_28335.lib : tftp_server.obj (.econst:.string:_$P$T4$5)
                  00322733    0000001a                      : memory.obj (.econst:.string:_$P$T0$1)
                  0032274d    0000001a                      : rbtree.obj (.econst:.string:_$P$T13$14)
                  00322767    0000001a                      : tftp_server.obj (.econst:.string:_$P$T24$25)
                  00322781    0000001a                      : tftp_server.obj (.econst:.string:_$P$T6$7)
                  0032279b    00000019                      : ethercatmaster_eoe.obj (.econst:.string:_$P$T0$1)
                  003227b4    00000019                      : ethercatmaster_eoe.obj (.econst:.string:_$P$T11$12)
                  003227cd    00000019                      : memory.obj (.econst:.string:_$P$T11$12)
                  003227e6    00000019                      : tftp_server.obj (.econst:.string:_$P$T25$26)
                  003227ff    00000019                      : ethercatmaster_foe.obj (.econst:.string:_$P$T4$5)
                  00322818    00000019                      : memory.obj (.econst:.string:_$P$T7$8)
                  00322831    00000019                      : memory.obj (.econst:.string:_$P$T8$9)
                  0032284a    00000018                      : rbtree.obj (.econst:.string:_$P$T0$1)
                  00322862    00000018                      : ethercatmaster_foe.obj (.econst:.string:_$P$T1$2)
                  0032287a    00000018                      : rbtree.obj (.econst:.string:_$P$T1$2)
                  00322892    00000018                      : rbtree.obj (.econst:.string:_$P$T14$15)
                  003228aa    00000018                      : rbtree.obj (.econst:.string:_$P$T22$23)
                  003228c2    00000018                      : rbtree.obj (.econst:.string:_$P$T23$24)
                  003228da    00000018     CommComp_RemoteIO.obj (.econst:_$P$T2$3)
                  003228f2    00000018     kernel_28335.lib : CalibrateAD.obj (.econst:_cnst_ADController)
                  0032290a    00000018     CommComp_Factory.obj (.econst:_gc_sCommComp)
                  00322922    00000018     database.obj (.econst:_uc_asBlock_REMOTEIODEVICE)
                  0032293a    00000017     kernel_28335.lib : ethercatmaster_foe.obj (.econst:.string:_$P$T0$1)
                  00322951    00000017                      : memory.obj (.econst:.string:_$P$T10$11)
                  00322968    00000017                      : rbtree.obj (.econst:.string:_$P$T15$16)
                  0032297f    00000017                      : ethercatmaster_eoe.obj (.econst:.string:_$P$T16$17)
                  00322996    00000017                      : ethercatmaster_eoe.obj (.econst:.string:_$P$T17$18)
                  003229ad    00000017                      : rbtree.obj (.econst:.string:_$P$T20$21)
                  003229c4    00000017                      : memory.obj (.econst:.string:_$P$T9$10)
                  003229db    00000016     CommComp_CANOpenMaster.obj (.econst:_uc_aeMCDB_WatchIndex)
                  003229f1    00000015     kernel_28335.lib : ethercatmaster_eoe.obj (.econst:.string:_$P$T10$11)
                  00322a06    00000015                      : tftp_server.obj (.econst:.string:_$P$T28$29)
                  00322a1b    00000015                      : tftp_server.obj (.econst:.string:_$P$T29$30)
                  00322a30    00000014                      : ethercatmaster.obj (.econst:.string:_$P$T0$1)
                  00322a44    00000014                      : memory.obj (.econst:.string:_$P$T1$2)
                  00322a58    00000014     drive_28335.lib : _eCan_28335.obj (.econst:_CNST_CANREG)
                  00322a6c    00000014                     : _io.obj (.econst:_CNST_ENCODER)
                  00322a80    00000013     kernel_28335.lib : ethercatmaster.obj (.econst:.string:_$P$T11$13)
                  00322a93    00000013                      : rbtree.obj (.econst:.string:_$P$T12$13)
                  00322aa6    00000013                      : rbtree.obj (.econst:.string:_$P$T16$17)
                  00322ab9    00000013                      : memory.obj (.econst:.string:_$P$T2$3)
                  00322acc    00000013                      : memory.obj (.econst:.string:_$P$T3$4)
                  00322adf    00000013                      : ethercatmaster_foe.obj (.econst:.string:_$P$T5$6)
                  00322af2    00000012                      : tftp_server.obj (.econst:.string:_$P$T1$2)
                  00322b04    00000012                      : tftp_server.obj (.econst:.string:_$P$T2$3)
                  00322b16    00000012                      : tftp.obj (.econst:_tftp__error)
                  00322b28    00000011                      : ethercatmaster_foe.obj (.econst:.string:_$P$T3$4)
                  00322b39    00000011                      : ethercatmaster.obj (.econst:.string:_$P$T4$5)
                  00322b4a    00000011                      : ethercatmaster_foe.obj (.econst:.string:_$P$T6$7)
                  00322b5b    00000010                      : ethercatmaster_coe.obj (.econst:.string:_$P$T1$2)
                  00322b6b    00000010                      : ethercatmaster_foe.obj (.econst:.string:_$P$T2$3)
                  00322b7b    00000010                      : tftp.obj (.econst:.string:_$P$T2$3)
                  00322b8b    00000010                      : tftp_server.obj (.econst:.string:_$P$T3$4)
                  00322b9b    00000010                      : ethercatmaster_eoe.obj (.econst:.string:_$P$T9$10)
                  00322bab    00000010     taskio.obj (.econst:_BitMask)
                  00322bbb    00000010     Task_Watch.obj (.econst:_gc_asWatchIndex)
                  00322bcb    0000000f     kernel_28335.lib : tftp.obj (.econst:.string:_$P$T0$1)
                  00322bda    0000000f                      : ethercatmaster.obj (.econst:.string:_$P$T5$6)
                  00322be9    0000000f                      : ethercatmaster.obj (.econst:_$P$T3$4)
                  00322bf8    0000000e                      : ethercatmaster.obj (.econst:.string:_$P$T1$2)
                  00322c06    0000000e                      : tftp.obj (.econst:.string:_$P$T1$2)
                  00322c14    0000000e     rts2800_fpu32.lib : _scanfi.c.obj (.econst:.string)
                  00322c22    0000000d     kernel_28335.lib : ethercatmaster.obj (.econst:.string:_$P$T2$3)
                  00322c2f    0000000d                      : memory_manager.obj (.econst:.string:_$P$T4$5)
                  00322c3c    0000000c                      : memory_manager.obj (.econst:.string:_$P$T3$4)
                  00322c48    0000000c                      : memory.obj (.econst:.string:_$P$T4$5)
                  00322c54    0000000c                      : memory.obj (.econst:.string:_$P$T5$6)
                  00322c60    0000000c                      : memory_manager.obj (.econst:.string:_$P$T5$6)
                  00322c6c    0000000c                      : memory.obj (.econst:.string:_$P$T6$7)
                  00322c78    0000000c                      : memory_manager.obj (.econst:.string:_$P$T6$7)
                  00322c84    0000000c     CommComp_turntable.obj (.econst:_$P$T0$1)
                  00322c90    0000000c     tasknet_master.obj (.econst:_CNST_DSP54IP)
                  00322c9c    0000000c     task_ethercatmaster.obj (.econst:_CNST_IOETH_EC)
                  00322ca8    0000000c     tasknet_PC.obj (.econst:_CNST_PCIP)
                  00322cb4    0000000c     tasknet_PC.obj (.econst:_g_PC_ctrlcmdmap)
                  00322cc0    0000000c     rts2800_fpu32.lib : strtod.c.obj (.econst:_powerof10)
                  00322ccc    0000000c     taskEtherCATMaster_app.obj (.econst:_tftp_server_IOETH)
                  00322cd8    0000000c     database.obj (.econst:_uc_asBlock_HYB)
                  00322ce4    0000000c     rts2800_fpu32.lib : strtold.c.obj (.econst)
                  00322cf0    0000000b     dbfunc.obj (.econst:_uc_NodeIDCheck_CAN2Tab)
                  00322cfb    00000009     kernel_28335.lib : memory_manager.obj (.econst:.string:_$P$T2$3)
                  00322d04    00000009                      : memory_manager.obj (.econst:.string:_$P$T7$8)
                  00322d0d    00000009                      : memory_manager.obj (.econst:.string:_$P$T8$9)
                  00322d16    00000008     CommComp_turntable.obj (.econst)
                  00322d1e    00000008     CommComp_turntable.obj (.econst:_$P$T1$2)
                  00322d26    00000008     drive_28335.lib : _io.obj (.econst:_IO_BitMask)
                  00322d2e    00000008     CommComp_TemperCard.obj (.econst:_uc_asTemperCard_base_index)
                  00322d36    00000008     rts2800_fpu32.lib : s_frexp.c.obj (.econst)
                  00322d3e    00000007     kernel_28335.lib : memory_manager.obj (.econst:.string:_$P$T0$1)
                  00322d45    00000007                      : memory_manager.obj (.econst:.string:_$P$T1$2)
                  00322d4c    00000007     rts2800_fpu32.lib : _scanfi.c.obj (.econst:.string:_flit$1)
                  00322d53    00000006                       : _scanfi.c.obj (.econst:.string:_barr$2)
                  00322d59    00000006     tasknet.obj (.econst:_CNST_INITSRCIP)
                  00322d5f    00000006     database.obj (.econst:_gc_asDataType)
                  00322d65    00000001     --HOLE-- [fill = 0]
                  00322d66    00000006     kernel_28335.lib : ethercatmaster.obj (.econst:_mailbox_send$12)
                  00322d6c    00000006     CommComp_CANOpenMaster.obj (.econst:_uc_afCtrlCmd)
                  00322d72    00000006     rts2800_fpu32.lib : s_scalbnf.c.obj (.econst)
                  00322d78    00000005     Task_Led.obj (.econst:_LEDSHOW_SERVICE_STOP)
                  00322d7d    00000005     firmware_28335.lib : ethernet.obj (.econst:_g_logo)
                  00322d82    00000005     dbfunc.obj (.econst:_uc_NodeIDCheck_CAN1Tab)
                  00322d87    00000001     --HOLE-- [fill = 0]
                  00322d88    00000004     CommComp_PwmtrCard.obj (.econst:_$P$T0$1)
                  00322d8c    00000004     kernel_28335.lib : ethercatmaster_Sync.obj (.econst:_$P$T0$2)
                  00322d90    00000004     CommComp_turntable.obj (.econst:_$P$T2$3)
                  00322d94    00000004     CommComp_turntable.obj (.econst:_$P$T4$5)
                  00322d98    00000004     Access.obj (.econst:_Access__base_index)
                  00322d9c    00000004     GeneralRW.obj (.econst:_GeneralRW__base_index)
                  00322da0    00000004     CommComp_PwmtrCard.obj (.econst:_uc_asWriteIndexSeg_Card1)
                  00322da4    00000004     CommComp_PwmtrCard.obj (.econst:_uc_asWriteIndexSeg_Card2)
                  00322da8    00000004     CommComp_PwmtrCard.obj (.econst:_uc_asWriteIndexSeg_Card3)
                  00322dac    00000004     kernel_28335.lib : CalibrateAD.obj (.econst)
                  00322db0    00000004     tasknet_HMI.obj (.econst)
                  00322db4    00000003     dbfunc.obj (.econst:_$P$T0$1)
                  00322db7    00000003     kernel_28335.lib : ethercatmaster_coe.obj (.econst:_$P$T0$1)
                  00322dba    00000003     dbfunc.obj (.econst:_$P$T1$2)
                  00322dbd    00000003     firmware_28335.lib : ethernet.obj (.econst:_$P$T1$2)
                  00322dc0    00000003     dbfunc.obj (.econst:_$P$T10$11)
                  00322dc3    00000003     dbfunc.obj (.econst:_$P$T2$3)
                  00322dc6    00000003     dbfunc.obj (.econst:_$P$T6$7)
                  00322dc9    00000003     dbfunc.obj (.econst:_$P$T7$8)
                  00322dcc    00000003     dbfunc.obj (.econst:_$P$T8$9)
                  00322dcf    00000003     dbfunc.obj (.econst:_$P$T9$10)
                  00322dd2    00000003     kernel_28335.lib : ethercatmaster.obj (.econst:_$P$T9$10)
                  00322dd5    00000003     Task_Led.obj (.econst:_LEDSHOW_1000MS)
                  00322dd8    00000003     Task_Led.obj (.econst:_LEDSHOW_100MS)
                  00322ddb    00000003     taskTemper.obj (.econst:_u_Temper_Alg_Config)
                  00322dde    00000003     taskTemper.obj (.econst:_u_Temper_Alg_Config_FastMold)
                  00322de1    00000003     CommComp_PwmtrCard.obj (.econst:_uc_awReadIndexSeg_Card)
                  00322de4    00000003     CommComp_PwmtrCard.obj (.econst:_uc_awWriteSegInfo_Card)
                  00322de7    00000001     --HOLE-- [fill = 0]
                  00322de8    00000002     rts2800_fpu32.lib : fputs.c.obj (.econst:.string)
                  00322dea    00000002     firmware_28335.lib : eeprom.obj (.econst:_$P$T0$1)
                  00322dec    00000002     tasknet_PC.obj (.econst:_$P$T0$1)
                  00322dee    00000002     firmware_28335.lib : eeprom.obj (.econst:_$P$T1$2)
                  00322df0    00000002                        : ethernet.obj (.econst:_$P$T2$3)
                  00322df2    00000002     dbfunc.obj (.econst:_$P$T4$5)
                  00322df4    00000002     firmware_28335.lib : ethernet.obj (.econst:_$P$T4$5)
                  00322df6    00000002                        : ethernet.obj (.econst:_$P$T6$7)
                  00322df8    00000002     kernel_28335.lib : ethercatmaster.obj (.econst:_$P$T7$8)
                  00322dfa    00000002     Task_Led.obj (.econst:_LEDSHOW_ON)
                  00322dfc    00000002     Rexroth.obj (.econst:_Rexroth__base_index)
                  00322dfe    00000002     Task_Watch.obj (.econst:_gc_sOldWatchIndex)
                  00322e00    00000002     CommComp_EtherCat.obj (.econst:_uc_afCtrlCmd)
                  00322e02    00000002     CommComp_PwmtrCard.obj (.econst:_uc_asReadIndexSeg_Card1)
                  00322e04    00000002     CommComp_PwmtrCard.obj (.econst:_uc_asReadIndexSeg_Card2)
                  00322e06    00000002     CommComp_PwmtrCard.obj (.econst:_uc_asReadIndexSeg_Card3)
                  00322e08    00000002     CommComp_TemperCard.obj (.econst:_uc_asReadIndexSeg_Card)
                  00322e0a    00000002     CommComp_RemoteIO.obj (.econst:_uc_asReadIndexSeg_GERMANJET)
                  00322e0c    00000002     CommComp_RemoteIO.obj (.econst:_uc_asReadIndexSeg_MT_HUB_8A)
                  00322e0e    00000002     CommComp_RemoteIO.obj (.econst:_uc_asReadIndexSeg_Picker)
                  00322e10    00000002     CommComp_RemoteIO.obj (.econst:_uc_asReadIndexSeg_RemoteIO)
                  00322e12    00000002     CommComp_RemoteIO.obj (.econst:_uc_asWriteIndexSeg_GERMANJET)
                  00322e14    00000002     CommComp_RemoteIO.obj (.econst:_uc_asWriteIndexSeg_MT_HUB_8A)
                  00322e16    00000002     CommComp_RemoteIO.obj (.econst:_uc_asWriteIndexSeg_Picker)
                  00322e18    00000002     CommComp_RemoteIO.obj (.econst:_uc_asWriteIndexSeg_RemoteIO)
                  00322e1a    00000002     kernel_28335.lib : version_kernel.obj (.econst)

.switch    0    00323470    00000038     
                  00323470    00000020     CommComp_RemoteIO.obj (.switch:_Map_RemoteIO)
                  00323490    00000018     kernel_28335.lib : ethercatmaster_foe.obj (.switch:_ECSlave_FoE_DealMailbox)

MODULE SUMMARY

       Module                            code     initialized data   uninitialized data
       ------                            ----     ----------------   ------------------
    .\TemperLib\source\
       temper_common.obj                 4195     444                11840             
       temper_alg.obj                    3594     12                 3                 
    +--+---------------------------------+--------+------------------+--------------------+
       Total:                            7789     456                11843             
                                                                                       
    .\app\asm\28335\
       DSP2833x_CodeStartBranch.obj      10       0                  0                 
    +--+---------------------------------+--------+------------------+--------------------+
       Total:                            10       0                  0                 
                                                                                       
    .\app\source\
       task_ethercatmaster.obj           975      131                198400            
       database.obj                      865      19962              7396              
       CommComp_RemoteIO.obj             5465     580                2924              
       taskEtherCATMaster_app.obj        7094     292                484               
       tasknet_master.obj                4196     275                1160              
       CommComp_turntable.obj            3304     132                632               
       tasknet_HMI.obj                   1530     160                2096              
       tasknet_PC.obj                    2154     213                1242              
       CommComp_Factory.obj              2098     24                 1192              
       CommComp_Driver.obj               2118     20                 468               
       CommComp_EtherCat.obj             1080     2                  1520              
       CommComp_TemperCard.obj           1801     170                576               
       main.obj                          904      63                 1554              
       CommComp_CANOpenMaster.obj        2443     32                 42                
       Access.obj                        2064     4                  296               
       GeneralRW.obj                     1811     4                  440               
       dbfunc.obj                        1831     44                 212               
       Watch.obj                         1587     0                  0                 
       Rexroth.obj                       807      21                 322               
       CANOpenCommon.obj                 95       0                  1024              
       CommComp_HTRobot.obj              879      6                  212               
       taskio.obj                        629      27                 298               
       CommComp_PwmtrCard.obj            500      46                 288               
       Task_Watch.obj                    101      18                 240               
       Error_App.obj                     265      0                  4                 
       Task_Led.obj                      220      14                 28                
       system.obj                        0        224                0                 
       initial.obj                       83       12                 8                 
       taskTemper.obj                    77       6                  0                 
       tasknet.obj                       66       11                 3                 
    +--+---------------------------------+--------+------------------+--------------------+
       Total:                            47042    22493              223061            
                                                                                       
    .\drive\28335\source\
       Utils.obj                         123      0                  0                 
    +--+---------------------------------+--------+------------------+--------------------+
       Total:                            123      0                  0                 
                                                                                       
    .\kernel\comm\source\
       task.obj                          845      13                 292               
    +--+---------------------------------+--------+------------------+--------------------+
       Total:                            845      13                 292               
                                                                                       
    ../Project/28335/Debug/DSP2833x_TI.lib
       DSP2833x_DefaultIsr.obj           3676     5                  2                 
       DSP2833x_GlobalVariableDefs.obj   0        0                  2679              
       DSP2833x_DMA.obj                  1015     0                  0                 
       DSP2833x_SysCtrl.obj              302      0                  0                 
       DSP2833x_PieVect.obj              32       256                0                 
       DSP2833x_Xintf.obj                283      0                  0                 
       DSP2833x_CpuTimers.obj            115      0                  24                
       DSP2833x_PieCtrl.obj              40       0                  0                 
       DSP2833x_usDelay.obj              8        0                  0                 
       DSP2833x_ADC_cal.obj              7        0                  0                 
    +--+---------------------------------+--------+------------------+--------------------+
       Total:                            5478     261                2705              
                                                                                       
    ../Project/28335/Debug/IQmath_fpu32.lib
       IQmathTables.obj                  0        2896               0                 
       IQ24div.obj                       142      0                  0                 
       IQ24rsmpy.obj                     42       0                  0                 
    +--+---------------------------------+--------+------------------+--------------------+
       Total:                            184      2896               0                 
                                                                                       
    ../Project/28335/Debug/drive_28335.lib
       _ax88796b.obj                     2932     42                 154               
       _eCan_28335.obj                   2210     41                 96                
       _io.obj                           376      44                 30                
       _spi.obj                          416      5                  4                 
       _25lc256_28335.obj                318      0                  0                 
       _ltc1864_28335.obj                226      4                  13                
       _led_28335.obj                    211      15                 14                
       _gpio_28335.obj                   155      0                  0                 
       _timer_28335.obj                  79       26                 14                
       _encoder_28335.obj                76       0                  0                 
       _adc_28335.obj                    9        0                  16                
       _dac_28335.obj                    5        0                  0                 
    +--+---------------------------------+--------+------------------+--------------------+
       Total:                            7013     177                341               
                                                                                       
    ../Project/28335/Debug/firmware_28335.lib
       ethernet.obj                      2977     135                4488              
       ethernet_switch.obj               697      404                0                 
       eeprom.obj                        80       71                 64                
    +--+---------------------------------+--------+------------------+--------------------+
       Total:                            3754     610                4552              
                                                                                       
    ../Project/28335/Debug/kernel_28335.lib
       ethercatmaster.obj                10800    383                16                
       tftp_server.obj                   3807     1781               6                 
       ethercatmaster_Sync.obj           3719     8                  1                 
       ethercatmaster_eoe.obj            2298     725                0                 
       rbtree.obj                        2009     908                0                 
       ethercatmaster_foe.obj            1592     947                0                 
       ethercatmaster_coe.obj            2140     291                0                 
       memory_manager.obj                1745     410                4                 
       memory.obj                        966      445                0                 
       tftp.obj                          302      335                0                 
       CalibrateAD.obj                   419      28                 0                 
       CompPulse.obj                     158      1                  0                 
       CompLed.obj                       99       0                  0                 
       version_kernel.obj                4        2                  0                 
    +--+---------------------------------+--------+------------------+--------------------+
       Total:                            30058    6264               27                
                                                                                       
    C:\ti\ccsv8\tools\compiler\ti-cgt-c2000_18.1.4.LTS\lib\rts2800_fpu32.lib
       _printfi.c.obj                    3439     66                 0                 
       _scanfi.c.obj                     2142     27                 0                 
       strtold.c.obj                     650      112                0                 
       strtod.c.obj                      515      44                 0                 
       memory.c.obj                      468      4                  8                 
       trgmsg.c.obj                      149      0                  288               
       defs.c.obj                        0        42                 352               
       strtoll.c.obj                     362      0                  0                 
       strtoull.c.obj                    290      0                  0                 
       ll_div28.asm.obj                  263      0                  0                 
       ctype.c.obj                       0        257                0                 
       fopen.c.obj                       248      4                  1                 
       strtol.c.obj                      214      0                  0                 
       s_scalbn.c.obj                    174      28                 0                 
       write.c.obj                       25       41                 136               
       fputs.c.obj                       176      2                  0                 
       strtoul.c.obj                     177      0                  0                 
       fd_add28.asm.obj                  156      0                  0                 
       fd_div28.asm.obj                  139      0                  0                 
       setvbuf.c.obj                     137      0                  0                 
       fs_div28.asm.obj                  136      0                  0                 
       fd_mpy28.asm.obj                  131      0                  0                 
       open.c.obj                        113      4                  1                 
       fflush.c.obj                      115      0                  0                 
       sscanf.c.obj                      109      0                  0                 
       _io_perm.c.obj                    103      0                  0                 
       s_frexp.c.obj                     90       8                  0                 
       hostlseek.c.obj                   97       0                  0                 
       s_scalbnf.c.obj                   90       6                  0                 
       fclose.c.obj                      95       0                  0                 
       snprintf.c.obj                    90       0                  0                 
       boot28.asm.obj                    86       0                  0                 
       fputc.c.obj                       83       0                  0                 
       getdevice.c.obj                   81       0                  0                 
       hostopen.c.obj                    64       0                  8                 
       hostread.c.obj                    63       0                  0                 
       hostrename.c.obj                  62       0                  0                 
       exit.c.obj                        41       14                 6                 
       fseek.c.obj                       61       0                  0                 
       hostwrite.c.obj                   56       0                  0                 
       printf.c.obj                      52       0                  0                 
       close.c.obj                       51       0                  0                 
       atoi.c.obj                        49       0                  0                 
       ltoa.c.obj                        48       0                  0                 
       fd_cmp28.asm.obj                  42       0                  0                 
       l_div28.asm.obj                   42       0                  0                 
       hostclose.c.obj                   41       0                  0                 
       s_copysign.c.obj                  37       0                  0                 
       cpy_tbl.c.obj                     36       0                  0                 
       hostunlink.c.obj                  36       0                  0                 
       i_div28.asm.obj                   34       0                  0                 
       fd_toi28.asm.obj                  33       0                  0                 
       fd_tol28.asm.obj                  31       0                  0                 
       ll_cmp28.asm.obj                  30       0                  0                 
       strncpy.c.obj                     30       0                  0                 
       i_tofd28.asm.obj                  29       0                  0                 
       fs_tofdfpu32.asm.obj              28       0                  0                 
       l_tofd28.asm.obj                  28       0                  0                 
       args_main.c.obj                   25       0                  0                 
       unlink.c.obj                      25       0                  0                 
       ll_aox28.asm.obj                  24       0                  0                 
       lseek.c.obj                       24       0                  0                 
       strncmp.c.obj                     24       0                  0                 
       _lock.c.obj                       9        10                 4                 
       memcmp.c.obj                      21       0                  0                 
       ll_mpy28.asm.obj                  20       0                  0                 
       s_copysignf.c.obj                 18       0                  0                 
       memchr.c.obj                      16       0                  0                 
       fd_sub28.asm.obj                  14       0                  0                 
       memccpy.c.obj                     13       0                  0                 
       strchr.c.obj                      12       0                  0                 
       strrchr.c.obj                     11       0                  0                 
       u_div28.asm.obj                   11       0                  0                 
       strcmp.c.obj                      10       0                  0                 
       fd_neg28.asm.obj                  9        0                  0                 
       wcslen.c.obj                      9        0                  0                 
       strlen.c.obj                      8        0                  0                 
       errno.c.obj                       0        4                  1                 
       strcpy.c.obj                      5        0                  0                 
       remove.c.obj                      3        0                  0                 
       pre_init.c.obj                    2        0                  0                 
       startup.c.obj                     1        0                  0                 
    +--+---------------------------------+--------+------------------+--------------------+
       Total:                            12481    673                805               
                                                                                       
       Heap:                             0        0                  384               
       Stack:                            0        0                  1024              
    +--+---------------------------------+--------+------------------+--------------------+
       Grand Total:                      114777   33843              245034            


GLOBAL DATA SYMBOLS: SORTED BY DATA PAGE

address     data page           name
--------    ----------------    ----
00000000       0 (00000000)     __stack

00000880      22 (00000880)     _DevEmuRegs

00000a80      2a (00000a80)     _FlashRegs

00000ae0      2b (00000ac0)     _CsmRegs

00000b00      2c (00000b00)     _AdcMirror
00000b20      2c (00000b00)     _XintfRegs

00000c00      30 (00000c00)     _CpuTimer0Regs
00000c08      30 (00000c00)     _CpuTimer1Regs
00000c10      30 (00000c00)     _CpuTimer2Regs

00000ce0      33 (00000cc0)     _PieCtrlRegs

00000d00      34 (00000d00)     _PieVectTable

00001000      40 (00001000)     _DmaRegs

00005000     140 (00005000)     _McbspaRegs

00005040     141 (00005040)     _McbspbRegs

00006000     180 (00006000)     _ECanbRegs

00006040     181 (00006040)     _ECanbLAMRegs

00006080     182 (00006080)     _ECanbMOTSRegs

000060c0     183 (000060c0)     _ECanbMOTORegs

00006100     184 (00006100)     _ECanbMboxes

00006200     188 (00006200)     _ECanaRegs

00006240     189 (00006240)     _ECanaLAMRegs

00006280     18a (00006280)     _ECanaMOTSRegs

000062c0     18b (000062c0)     _ECanaMOTORegs

00006300     18c (00006300)     _ECanaMboxes

00006800     1a0 (00006800)     _EPwm1Regs

00006840     1a1 (00006840)     _EPwm2Regs

00006880     1a2 (00006880)     _EPwm3Regs

000068c0     1a3 (000068c0)     _EPwm4Regs

00006900     1a4 (00006900)     _EPwm5Regs

00006940     1a5 (00006940)     _EPwm6Regs

00006a00     1a8 (00006a00)     _ECap1Regs
00006a20     1a8 (00006a00)     _ECap2Regs

00006a40     1a9 (00006a40)     _ECap3Regs
00006a60     1a9 (00006a40)     _ECap4Regs

00006a80     1aa (00006a80)     _ECap5Regs
00006aa0     1aa (00006a80)     _ECap6Regs

00006b00     1ac (00006b00)     _EQep1Regs

00006b40     1ad (00006b40)     _EQep2Regs

00006f80     1be (00006f80)     _GpioCtrlRegs

00006fc0     1bf (00006fc0)     _GpioDataRegs
00006fe0     1bf (00006fc0)     _GpioIntRegs

00007010     1c0 (00007000)     _SysCtrlRegs

00007040     1c1 (00007040)     _SpiaRegs
00007050     1c1 (00007040)     _SciaRegs
00007070     1c1 (00007040)     _XIntruptRegs

00007100     1c4 (00007100)     _AdcRegs

00007750     1dd (00007740)     _ScibRegs
00007770     1dd (00007740)     _ScicRegs

00007900     1e4 (00007900)     _I2caRegs

00008600     218 (00008600)     _g_wSubIndex
00008601     218 (00008600)     _g_wIndex
00008602     218 (00008600)     _g_wByteSizeSDO
00008603     218 (00008600)     _g_wUploadSDOFlag
00008604     218 (00008600)     _u_wFirstUpdateReady
00008605     218 (00008600)     _g_ECSwitchBufferUsed
00008606     218 (00008600)     _g_wRunECMasterFlag
00008607     218 (00008600)     _g_wMasterErrorScan
00008608     218 (00008600)     _g_ECSwitchBlockUsed
0000861e     218 (00008600)     _g_dwTestRxPDOCNT
00008620     218 (00008600)     _u_dwInitCheckCNT

00008640     219 (00008640)     _g_ECSwitchBlock

00008940     225 (00008940)     _g_ECSwitchBuffer

00009538     254 (00009500)     _u_initparam
0000953a     254 (00009500)     _g_bitoutx
0000953c     254 (00009500)     _g_bitinx

00009540     255 (00009540)     _u_wECATLinkMask
00009541     255 (00009540)     _g_wRemoteIOUploadSDO_Abort_CNT
00009542     255 (00009540)     _u_wExternOtherCount
00009543     255 (00009540)     _u_wDriverInovanceCount
00009544     255 (00009540)     _u_wJ6xCount
00009545     255 (00009540)     _g_wPackerCount
00009546     255 (00009540)     _u_wHTRobotCount
00009547     255 (00009540)     _g_wHTJ6CardType
00009548     255 (00009540)     _u_wDriverXingtaiCount
00009549     255 (00009540)     _u_wRexrothCount
0000954a     255 (00009540)     _u_wDACount
0000954b     255 (00009540)     _u_wPosiCount
0000954c     255 (00009540)     _u_wOutputCount
0000954d     255 (00009540)     _u_wADCount
0000954e     255 (00009540)     _u_wInputCount
0000954f     255 (00009540)     _u_wPickerCount
00009550     255 (00009540)     _u_wtmIoT101Count
00009551     255 (00009540)     _u_wMT_HUB_8ACount
00009552     255 (00009540)     _u_wGermanjetCount
00009553     255 (00009540)     _u_wCANRulerCount
00009554     255 (00009540)     _u_wtmIoT202Count
00009555     255 (00009540)     _u_wRemoteIOCount
00009556     255 (00009540)     _u_wtmIoT105Count
00009557     255 (00009540)     _u_wtmIoT201Count
00009558     255 (00009540)     _u_wtmIoT102Count

00009580     256 (00009580)     _u_asPosiMap

000095c0     257 (000095c0)     _u_asInputMap

00009640     259 (00009640)     _u_asOutputMap

000096c0     25b (000096c0)     _u_asADMap

00009840     261 (00009840)     _u_asRemoteIOCardInfo

000099c0     267 (000099c0)     _u_asDAMap

00009bc0     26f (00009bc0)     _g_asCommRemoteIO

0000a0ac     282 (0000a080)     _u_bExecFlag
0000a0b0     282 (0000a080)     _g_dwTickMainISR
0000a0b2     282 (0000a080)     _u_dwStackScan
0000a0b4     282 (0000a080)     _g_dwTickWhile
0000a0b6     282 (0000a080)     _g_CPULoadWhile
0000a0be     282 (0000a080)     __FC_Write_DAProtected

0000a0c0     283 (0000a0c0)     _u_wRespCurveRecCounter
0000a0c1     283 (0000a0c0)     _g_wSendTest
0000a0c2     283 (0000a0c0)     _u_wRespAlarmCounter
0000a0c3     283 (0000a0c0)     _u_wRespWriteRecCounter
0000a0c4     283 (0000a0c0)     _u_wRespMoldsetRecCounter
0000a0c5     283 (0000a0c0)     _u_wRespMoldsetStateCounter
0000a0c6     283 (0000a0c0)     _g_nHMISession
0000a0c7     283 (0000a0c0)     _g_wRecord
0000a0c8     283 (0000a0c0)     _wCycleTime
0000a0c9     283 (0000a0c0)     _wTestType
0000a0ca     283 (0000a0c0)     _g_wTestCounter
0000a0cb     283 (0000a0c0)     _g_wNoElements
0000a0cc     283 (0000a0c0)     _g_wTelegramCount
0000a0cd     283 (0000a0c0)     _u_wRespActCounter
0000a0ce     283 (0000a0c0)     _u_wRespReadRefCounter
0000a0cf     283 (0000a0c0)     _MsgState
0000a0d4     283 (0000a0c0)     _MoldsetState

0000a100     284 (0000a100)     _u_TestBuffer

0000a380     28e (0000a380)     _u_RespList

0000a4c0     293 (0000a4c0)     _g_wElements

0000a6c0     29b (0000a6c0)     _g_wCounter

0000a8f0     2a3 (0000a8c0)     _g_Preadc

0000aef0     2bb (0000aec0)     _g_wTest_NONE
0000aef1     2bb (0000aec0)     _g_wTest_LRD
0000aef2     2bb (0000aec0)     _g_wTest_ARMW
0000aef3     2bb (0000aec0)     _g_wTest_LWR
0000aef4     2bb (0000aec0)     _g_wTest_LRW
0000aef5     2bb (0000aec0)     _g_wTest_FPRW
0000aef6     2bb (0000aec0)     _g_wTest_FPWR
0000aef7     2bb (0000aec0)     _g_wTest_BWR
0000aef8     2bb (0000aec0)     _g_wTest_BRD
0000aef9     2bb (0000aec0)     _g_wTest_APWR
0000aefa     2bb (0000aec0)     _g_wTest_APRD
0000aefb     2bb (0000aec0)     _g_wTest_FPRD
0000aefc     2bb (0000aec0)     _g_wTest_APRW
0000aefd     2bb (0000aec0)     _g_wEcatRxDataError
0000aefe     2bb (0000aec0)     _g_wTest_FRMW
0000aeff     2bb (0000aec0)     _g_wTest_BRW

0000af00     2bc (0000af00)     _g_sCommComp

0000b3a8     2ce (0000b380)     _CpuTimer1
0000b3b0     2ce (0000b380)     _CpuTimer2
0000b3b8     2ce (0000b380)     _CpuTimer0

0000b3c0     2cf (0000b3c0)     _g_SendDoneCheck
0000b3c1     2cf (0000b3c0)     _g_ActDataType
0000b3c2     2cf (0000b3c0)     _g_MasterComState
0000b3c3     2cf (0000b3c0)     _g_OperateStep1
0000b3c4     2cf (0000b3c0)     _g_RetransmitType
0000b3c5     2cf (0000b3c0)     _g_wMasterReady
0000b3c6     2cf (0000b3c0)     _g_bDealDataImmediately
0000b3c7     2cf (0000b3c0)     _g_OperateMode
0000b3c8     2cf (0000b3c0)     _g_nDsp54NetSession
0000b3ca     2cf (0000b3c0)     _wParseBufferLength
0000b3cd     2cf (0000b3c0)     _g_wManualKey_ClrErrFlag
0000b3ce     2cf (0000b3c0)     _g_wCommXPLC_backup
0000b3cf     2cf (0000b3c0)     _g_OperateStep1last
0000b3d0     2cf (0000b3c0)     _g_wCycle5528J6
0000b3d1     2cf (0000b3c0)     _g_bHMIDataParsed
0000b3d2     2cf (0000b3c0)     _g_wHydraulicSpdSetpoint
0000b3d3     2cf (0000b3c0)     _g_bAutoMode
0000b3d4     2cf (0000b3c0)     _g_lManualKey_ClrErrCount
0000b3d6     2cf (0000b3c0)     _u_fRullerRange
0000b3d8     2cf (0000b3c0)     _u_dwEjectorBwd_StartTime
0000b3da     2cf (0000b3c0)     _u_dwEjecatorFwd_StartTime
0000b3dc     2cf (0000b3c0)     _u_dwCommReadyCount
0000b3de     2cf (0000b3c0)     _u_fCommFunc
0000b3e0     2cf (0000b3c0)     _g_lHmiTruanmitEchoData
0000b3e2     2cf (0000b3c0)     _g_lHmiTransmitData
0000b3e4     2cf (0000b3c0)     _g_dwMotionDA91
0000b3e6     2cf (0000b3c0)     _g_dwTemperCardCount
0000b3e8     2cf (0000b3c0)     _u_dwSuckBack_StartTime
0000b3ea     2cf (0000b3c0)     _u_dwInject_StartTime
0000b3ec     2cf (0000b3c0)     _g_lRecvRetransmitData
0000b3ee     2cf (0000b3c0)     _g_lSendRetransmitData
0000b3f0     2cf (0000b3c0)     _u_lRecvInterval
0000b3f2     2cf (0000b3c0)     _g_NetStopState
0000b3f6     2cf (0000b3c0)     _g_BootState
0000b3fa     2cf (0000b3c0)     _u_sAutoRespList_Slow

0000b400     2d0 (0000b400)     _u_sAutoRespList_Fast
0000b406     2d0 (0000b400)     _MOTIONCONFIG_TABLE

0000b440     2d1 (0000b440)     _u_TempParseBuffer

0000b540     2d5 (0000b540)     _u_HMIFifo

0000b680     2da (0000b680)     _u_TempTxBuffer

0000b848     2e1 (0000b840)     _g_wTestCANCOBID_0
0000b84a     2e1 (0000b840)     _g_aCANSDO_EasyController

0000b884     2e2 (0000b880)     _g_version_temperlib
0000b888     2e2 (0000b880)     _u_HeatCMDTimer
0000b88a     2e2 (0000b880)     _u_dwTemperTick
0000b88e     2e2 (0000b880)     _u_apTemperTypeTbl
0000b894     2e2 (0000b880)     _u_apTemperTypeTbl2
0000b89a     2e2 (0000b880)     _u_TemperCommon

0000b8c0     2e3 (0000b8c0)     _u_TemperCommonInteral

0000b900     2e4 (0000b900)     _u_aAd2DegreeJ

0000b940     2e5 (0000b940)     _u_aAd2DegreeJ2

0000b980     2e6 (0000b980)     _u_aAd2DegreeK

0000b9c0     2e7 (0000b9c0)     _u_aAd2DegreeK2

0000ba00     2e8 (0000ba00)     _u_aAd2DegreeE2

0000ba40     2e9 (0000ba40)     _u_aAd2DegreeE

0000ba80     2ea (0000ba80)     _u_aTemperAlg

0000c0c0     303 (0000c0c0)     _CommComp_turntable__aConfig_tab

0000c100     304 (0000c100)     _CommComp_turntable_aCard_hydraulic

0000c1c0     307 (0000c1c0)     _CommComp_turntable_aCard_HT

0000c280     30a (0000c280)     _CommComp_turntable_aCard_electric

0000c338     30c (0000c300)     _parmbuf

0000c340     30d (0000c340)     _g_PC_wNetFrameErrorCNT
0000c341     30d (0000c340)     _g_PC_nNetSession
0000c342     30d (0000c340)     _g_PC_wLastMoldsetCNT
0000c343     30d (0000c340)     _g_55_nNetSession
0000c344     30d (0000c340)     _u_PC_wRespCurveSetNum
0000c345     30d (0000c340)     _g_wTestRespMsgValueCNT
0000c346     30d (0000c340)     _u_PC_wRespReadRefCounter
0000c347     30d (0000c340)     _u_PC_wRespActCounter
0000c348     30d (0000c340)     _u_PC_wRespMoldsetStateCounter
0000c349     30d (0000c340)     _u_PC_wRespMoldsetRecCounter
0000c34a     30d (0000c340)     _u_PC_wRespWriteRecCounter
0000c34b     30d (0000c340)     _u_PC_wRespAlarmCounter
0000c34c     30d (0000c340)     _u_PC_dwCurveTimeAxis
0000c34e     30d (0000c340)     _u_PC_dwCurveTimeAxis_tick
0000c350     30d (0000c340)     _u_PC_dwRespCurveRecCounter
0000c352     30d (0000c340)     _PC_LinkState
0000c356     30d (0000c340)     _PC_MoldsetState
0000c35c     30d (0000c340)     _PC_MsgState

0000c380     30e (0000c380)     _g_PC_dwLastError

0000c3c0     30f (0000c3c0)     _u_PC_RespList

0000c59a     316 (0000c580)     _u_dac
0000c59e     316 (0000c580)     _u_io
0000c5a4     316 (0000c580)     _u_aEncoder

0000c5c0     317 (0000c5c0)     _g_wTemperCardUploadSDO_Abort_CNT

0000c600     318 (0000c600)     _u_asTemperCardInfo

0000c6c0     31b (0000c6c0)     _g_asCommTemperCard

0000c800     320 (0000c800)     _g_Card_EtherCATMaster
0000c801     320 (0000c800)     _u_wECATSlaveOPLost
0000c802     320 (0000c800)     _u_bECATNoechoFlag
0000c803     320 (0000c800)     _u_wMT_HUB_8A_SDOReadIndex
0000c804     320 (0000c800)     _u_nMT_HUB_8A_SlaveIdx
0000c806     320 (0000c800)     _u_nMT_HUB_8A_Position
0000c808     320 (0000c800)     _u_wMT_HUB_8A_Error
0000c810     320 (0000c800)     _u_wMT_HUB_8A_ErrorFlag
0000c818     320 (0000c800)     _g_HT_AxisCard_EleInj

0000c840     321 (0000c840)     _g_HT_AxisCard_Oil

0000c880     322 (0000c880)     _g_HT_AxisCard_Plus

0000c900     324 (0000c900)     _g_HT_AxisCard_PP

0000c9e4     327 (0000c9c0)     _u_iLed_Event
0000c9e5     327 (0000c9c0)     _u_iLed_MasterOnline
0000c9e6     327 (0000c9c0)     _u_iLed_Error
0000c9e7     327 (0000c9c0)     _u_iLed_HMIOnline
0000c9e8     327 (0000c9c0)     _g_dwServiceTime
0000c9ea     327 (0000c9c0)     _u_dwRunTime
0000c9ec     327 (0000c9c0)     _u_sLed_CpuHeart
0000c9f6     327 (0000c9c0)     _g_sLed_Alarm

0000ca00     328 (0000ca00)     _bSend_InjState_Xingtai
0000ca01     328 (0000ca00)     _wSend_Flow_Xingtai
0000ca02     328 (0000ca00)     _Press_Xingtai
0000ca03     328 (0000ca00)     _Flow_Xingtai
0000ca04     328 (0000ca00)     _wSend_Press_Xingtai
0000ca05     328 (0000ca00)     _g_XT_SendEnable
0000ca07     328 (0000ca00)     _XingtaiBaudrateConf
0000ca0a     328 (0000ca00)     _InovanceBaudrateConf
0000ca0d     328 (0000ca00)     _CommComp_driver__aConfig_tab
0000ca11     328 (0000ca00)     _g_HT_91_Driver_Inovance
0000ca18     328 (0000ca00)     _g_XT_91_Driver
0000ca20     328 (0000ca00)     _g_HT_MB_Driver_Inovance

0000ca40     329 (0000ca40)     _g_XT_MB_Driver

0000ca80     32a (0000ca80)     _CommComp_driver_aCard_inovance

0000cb40     32d (0000cb40)     _CommComp_driver_aCard_xingtai

0000cbd4     32f (0000cbc0)     _g_dwSystemUpTick
0000cbd6     32f (0000cbc0)     _g_pFuncCritical
0000cbd8     32f (0000cbc0)     _g_lSystemDnTick
0000cbda     32f (0000cbc0)     _g_CPULoad
0000cbe3     32f (0000cbc0)     _u_adcltc1864
0000cbf0     32f (0000cbc0)     _tftp_server__map
0000cbf6     32f (0000cbc0)     ___TI_enable_exit_profile_output
0000cbf8     32f (0000cbc0)     ___TI_cleanup_ptr
0000cbfa     32f (0000cbc0)     ___TI_dtors_ptr
0000cbfc     32f (0000cbc0)     _Error_App__checkTimer
0000cbfe     32f (0000cbc0)     _Error_App__task

0000cc00     330 (0000cc00)     _GeneralRW__aController

0000cdbc     336 (0000cd80)     _memory__heap
0000cdbe     336 (0000cd80)     _memory__mutex

0000cdc0     337 (0000cdc0)     ___TI_ft_end

0000ce00     338 (0000ce00)     __ftable

0000ce80     33a (0000ce80)     ___TI_tmpnams

0000cf20     33c (0000cf00)     _g_paramnet
0000cf23     33c (0000cf00)     _g_wTemper_alg_MinOnTime
0000cf24     33c (0000cf00)     _u_wHeatCmd
0000cf26     33c (0000cf00)     __lock
0000cf28     33c (0000cf00)     __unlock
0000cf2a     33c (0000cf00)     _errno

0000cf40     33d (0000cf40)     _u_bTestFlag
0000cf42     33d (0000cf40)     _u_dwWriteValue
0000cf44     33d (0000cf40)     _u_dwWriteEnter
0000cf46     33d (0000cf40)     _u_dwReadEnter

0000cf80     33e (0000cf80)     _Rexroth__aController

0000d0c0     343 (0000d0c0)     _g_IOCPULoad
0000d0c8     343 (0000d0c0)     _g_devicedata

0000d100     344 (0000d100)     _g_CalibrateADController

0000d180     346 (0000d180)     _g_deviceconfig

0000d200     348 (0000d200)     _Access__aController

0000d340     34d (0000d340)     _u_pdwSysDnTimer_MS
0000d342     34d (0000d340)     _u_TcbConfig

0000d380     34e (0000d380)     _u_aTcbWhileloopList

0000d3c0     34f (0000d3c0)     _u_aTcbTimerintList

0000d400     350 (0000d400)     _u_aTcbUnTimerintList

0000d4c0     353 (0000d4c0)     _u_asPwmtrCardInfo

0000d540     355 (0000d540)     _g_asCommPwmtrCard

0000d5c0     357 (0000d5c0)     _g_lCheckSessionStateTimer
0000d5c2     357 (0000d5c0)     _g_dwRxNetDatagramCount
0000d5c8     357 (0000d5c0)     _g_dwTxNetDatagramCount
0000d5ce     357 (0000d5c0)     _u_aSwitchPort
0000d5d4     357 (0000d5c0)     _g_acSmac
0000d5de     357 (0000d5c0)     _g_NetCPULoad

0000d600     358 (0000d600)     _u_parameth

0000d700     35c (0000d700)     _u_wWatch_index
0000d702     35c (0000d700)     _g_sOldWatch

0000d740     35d (0000d740)     _g_asWatch

0000d800     360 (0000d800)     _g_wMBMoldPosition
0000d801     360 (0000d800)     _g_wMBEjetPosition
0000d802     360 (0000d800)     _g_byMBOpenmoldState
0000d803     360 (0000d800)     _g_wMBOpenendPosition
0000d804     360 (0000d800)     _g_byMBEjetState
0000d805     360 (0000d800)     _HTRobotBaudrateConf
0000d808     360 (0000d800)     _CommComp_Robot__aConfig_tab

0000d840     361 (0000d840)     _CommComp_Robot_aCard_HT

0000d900     364 (0000d900)     _u_aTemperCardKiBackup

0000d980     366 (0000d980)     _u_aTemperCardKpBackup

0000da00     368 (0000da00)     _g_wRst
0000da01     368 (0000da00)     _g_wTx
0000da02     368 (0000da00)     _g_wRx
0000da03     368 (0000da00)     _g_wAbt
0000da04     368 (0000da00)     _g_wOvw
0000da05     368 (0000da00)     _g_wCnt
0000da06     368 (0000da00)     _g_wCol
0000da07     368 (0000da00)     _g_wOwc
0000da08     368 (0000da00)     _g_a
0000da09     368 (0000da00)     _g_awIOBase
0000da0c     368 (0000da00)     _g_awEepromMAC
0000da0f     368 (0000da00)     _u_qheader

0000da40     369 (0000da40)     _u_hether

0000dac0     36b (0000dac0)     __stream

0000db00     36c (0000db00)     __device

0000db84     36e (0000db80)     _g_dwBOResetCount
0000db90     36e (0000db80)     _g_RxCANESError
0000dba8     36e (0000db80)     _g_TxCANESError

0000dbc0     36f (0000dbc0)     _HCan
0000dbe0     36f (0000dbc0)     __sys_memory

0000e400     390 (0000e400)     __CIOBUF_

0000e600     398 (0000e600)     _u_awEthTxBufTemp

0000ee40     3b9 (0000ee40)     _u_awEthRxBufTemp

0000f680     3da (0000f680)     _u_PC_TempBuffer

0000f7c0     3df (0000f7c0)     _u_PC_CurveBuffer

00203000    80c0 (00203000)     _g_sDB

00208000    8200 (00208000)     _u_aTemperInternal

0020dc00    8370 (0020dc00)     _g_ECController

0031bca0    c6f2 (0031bc80)     _gc_asAttribInfo

00320d68    c835 (00320d40)     __ctypes_

00320e6a    c839 (00320e40)     _PieVectTableInit

00321060    c841 (00321040)     _gc_asGroup

00321978    c865 (00321940)     _g_CMDMap

00321b94    c86e (00321b80)     _g_PC_commmap

00321bc0    c86f (00321bc0)     _g_commmap

003224c7    c893 (003224c0)     _LEDSHOW_OFF
003224c8    c893 (003224c0)     _cnst_DealEtherCatFunc

0032263d    c898 (00322600)     _uc_assPulse

003228f2    c8a3 (003228c0)     _cnst_ADController

0032290a    c8a4 (00322900)     _gc_sCommComp

00322a58    c8a9 (00322a40)     _CNST_CANREG
00322a6c    c8a9 (00322a40)     _CNST_ENCODER

00322bab    c8ae (00322b80)     _BitMask
00322bbb    c8ae (00322b80)     _gc_asWatchIndex

00322c90    c8b2 (00322c80)     _CNST_DSP54IP
00322c9c    c8b2 (00322c80)     _CNST_IOETH_EC
00322ca8    c8b2 (00322c80)     _CNST_PCIP
00322cb4    c8b2 (00322c80)     _g_PC_ctrlcmdmap

00322cf0    c8b3 (00322cc0)     _uc_NodeIDCheck_CAN2Tab

00322d26    c8b4 (00322d00)     _IO_BitMask

00322d59    c8b5 (00322d40)     _CNST_INITSRCIP
00322d5f    c8b5 (00322d40)     _gc_asDataType
00322d78    c8b5 (00322d40)     _LEDSHOW_SERVICE_STOP
00322d7d    c8b5 (00322d40)     _g_logo

00322d82    c8b6 (00322d80)     _uc_NodeIDCheck_CAN1Tab
00322d98    c8b6 (00322d80)     _Access__base_index
00322d9c    c8b6 (00322d80)     _GeneralRW__base_index
00322db0    c8b6 (00322d80)     _HEADER_RES
00322db1    c8b6 (00322d80)     _HEADER_REQ
00322db2    c8b6 (00322d80)     _FOOTER_RES
00322db3    c8b6 (00322d80)     _FOOTER_REQ

00322dd5    c8b7 (00322dc0)     _LEDSHOW_1000MS
00322dd8    c8b7 (00322dc0)     _LEDSHOW_100MS
00322ddb    c8b7 (00322dc0)     _u_Temper_Alg_Config
00322dde    c8b7 (00322dc0)     _u_Temper_Alg_Config_FastMold
00322dfa    c8b7 (00322dc0)     _LEDSHOW_ON
00322dfc    c8b7 (00322dc0)     _Rexroth__base_index
00322dfe    c8b7 (00322dc0)     _gc_sOldWatchIndex

00322e1a    c8b8 (00322e00)     _const_version_kernel

0032fd00    cbf4 (0032fd00)     _u_BurnSystem

0033fff8    cfff (0033ffc0)     _CsmPwl

00380090    e002 (00380080)     _PartIdRegs

003fe000    ff80 (003fe000)     _IQsinTable

003fe100    ff84 (003fe100)     _IQcosTable

003fe400    ff90 (003fe400)     _IQsinTableEnd

003fe502    ff94 (003fe500)     _IQcosTableEnd
003fe502    ff94 (003fe500)     _IQdivRoundSatTable
003fe510    ff94 (003fe500)     _IQdivTable

003fe712    ff9c (003fe700)     _IQdivTableEnd
003fe712    ff9c (003fe700)     _IQisqrtRoundSatTable
003fe712    ff9c (003fe700)     _IQsqrtRoundSatTable
003fe722    ff9c (003fe700)     _IQisqrtTable
003fe722    ff9c (003fe700)     _IQsqrtTable

003fe824    ffa0 (003fe800)     _IQatan2HalfPITable
003fe824    ffa0 (003fe800)     _IQisqrtTableEnd
003fe824    ffa0 (003fe800)     _IQsqrtTableEnd

003fe862    ffa1 (003fe840)     _IQatan2Table

003fe9e8    ffa7 (003fe9c0)     _IQ30mpyRndSatTable
003fe9e8    ffa7 (003fe9c0)     _IQatan2TableEnd
003fe9e8    ffa7 (003fe9c0)     _IQmpyRndSatTable
003fe9f4    ffa7 (003fe9c0)     _IQ29mpyRndSatTable

003fea00    ffa8 (003fea00)     _IQ28mpyRndSatTable
003fea0c    ffa8 (003fea00)     _IQ27mpyRndSatTable
003fea18    ffa8 (003fea00)     _IQ26mpyRndSatTable
003fea24    ffa8 (003fea00)     _IQ25mpyRndSatTable
003fea30    ffa8 (003fea00)     _IQ24mpyRndSatTable
003fea3c    ffa8 (003fea00)     _IQ23mpyRndSatTable

003fea48    ffa9 (003fea40)     _IQ22mpyRndSatTable
003fea54    ffa9 (003fea40)     _IQ21mpyRndSatTable
003fea60    ffa9 (003fea40)     _IQ20mpyRndSatTable
003fea6c    ffa9 (003fea40)     _IQ19mpyRndSatTable
003fea78    ffa9 (003fea40)     _IQ18mpyRndSatTable

003fea84    ffaa (003fea80)     _IQ17mpyRndSatTable
003fea90    ffaa (003fea80)     _IQ16mpyRndSatTable
003fea9c    ffaa (003fea80)     _IQ15mpyRndSatTable
003feaa8    ffaa (003fea80)     _IQ14mpyRndSatTable
003feab4    ffaa (003fea80)     _IQ13mpyRndSatTable

003feac0    ffab (003feac0)     _IQ12mpyRndSatTable
003feacc    ffab (003feac0)     _IQ11mpyRndSatTable
003fead8    ffab (003feac0)     _IQ10mpyRndSatTable
003feae4    ffab (003feac0)     _IQ9mpyRndSatTable
003feaf0    ffab (003feac0)     _IQ8mpyRndSatTable
003feafc    ffab (003feac0)     _IQ7mpyRndSatTable

003feb08    ffac (003feb00)     _IQ6mpyRndSatTable
003feb14    ffac (003feb00)     _IQ5mpyRndSatTable
003feb20    ffac (003feb00)     _IQ4mpyRndSatTable
003feb2c    ffac (003feb00)     _IQ3mpyRndSatTable
003feb38    ffac (003feb00)     _IQ2mpyRndSatTable

003feb44    ffad (003feb40)     _IQ1mpyRndSatTable
003feb50    ffad (003feb40)     _IQmpyRndSatTableEnd


GLOBAL SYMBOLS: SORTED ALPHABETICALLY BY Name 

page  address   name                                                           
----  -------   ----                                                           
abs   ffffffff  .text                                                          
0     0031b93a  C$$EXIT                                                        
0     0031ac29  C$$IO$$                                                        
0     0031aa9e  FD$$ADD                                                        
0     0031b8e6  FD$$CMP                                                        
0     0031ac6b  FD$$DIV                                                        
0     0031ae07  FD$$MPY                                                        
0     0031bc6b  FD$$NEG                                                        
0     0031bc12  FD$$SUB                                                        
0     0031ba43  FD$$TOI                                                        
0     0031ba84  FD$$TOL                                                        
0     0031ad7f  FS$$DIV                                                        
0     0031bafc  FS$$TOFD                                                       
0     0031ba21  I$$DIV                                                         
0     0031ba32  I$$MOD                                                         
0     0031badf  I$$TOFD                                                        
0     0031b910  L$$DIV                                                         
0     0031b91f  L$$MOD                                                         
0     0031bb18  L$$TOFD                                                        
0     0031bb7f  LL$$AND                                                        
0     0031baa3  LL$$CMP                                                        
0     0031a193  LL$$DIV                                                        
0     0031a1cf  LL$$MOD                                                        
0     0031bbdc  LL$$MPY                                                        
0     0031bb87  LL$$OR                                                         
0     0031bb8f  LL$$XOR                                                        
0     0031bc44  U$$DIV                                                         
0     0031bc49  U$$MOD                                                         
0     0031b92d  UL$$DIV                                                        
0     0031b934  UL$$MOD                                                        
0     0031bab5  ULL$$CMP                                                       
0     0031a209  ULL$$DIV                                                       
0     0031a238  ULL$$MOD                                                       
0     0030a16a  _ADCINT_ISR                                                    
0     00380080  _ADC_cal                                                       
0     003135c1  _Access_Read                                                   
0     003136b5  _Access_ReadAccess                                             
0     00313664  _Access_SearchReadItem                                         
0     00313613  _Access_SearchWriteItem                                        
0     0031353d  _Access_Write                                                  
0     00313726  _Access_WriteAccess                                            
0     0000d200  _Access__aController                                           
0     00322d98  _Access__base_index                                            
0     0030d5a8  _ActivateEthSession                                            
0     00000b00  _AdcMirror                                                     
0     00007100  _AdcRegs                                                       
0     0000823e  _BYTE_get                                                      
0     00008195  _BYTE_memcpy                                                   
0     00008141  _BYTE_memset                                                   
0     00008272  _BYTE_set                                                      
0     0030d974  _BindAddrToSession                                             
0     00322bab  _BitMask                                                       
0     00313ff7  _CAN1NodeID_Check                                              
0     0031403c  _CAN2NodeID_Check                                              
0     0030ef5c  _CANOpenCHBManager_Check                                       
0     0030ef24  _CANOpenCHBManager_Init                                        
0     0030ef4c  _CANOpenCHBManager_RecvedMsg                                   
0     0030ef3c  _CANOpenCHBManager_Reset                                       
0     003178cb  _CANOpenHTRobot_PRIfcommRun_Null                               
0     003120f7  _CANOpenInovance_Null                                          
0     0030ee93  _CANOpenMaster_CommTypeToChannel                               
0     0030eea3  _CANOpenMaster_ResetComm                                       
0     0030ed1c  _CANOpenMaster_SendNMTModuleCtrl                               
0     0030ee57  _CANOpenMaster_SendNodeGruading                                
0     0030ed91  _CANOpenMaster_SendPDO                                         
0     0030ed6c  _CANOpenMaster_SendRPDO                                        
0     0030edd6  _CANOpenMaster_SendSDO                                         
0     0030ed55  _CANOpenMaster_SendSync                                        
0     003120fc  _CANOpenXingtai_Null                                           
0     0031b260  _CANOpen_Close                                                 
0     0031b259  _CANOpen_Open                                                  
0     0031b268  _CANOpen_RX                                                    
0     0031b276  _CANOpen_Read                                                  
0     0031b26f  _CANOpen_TX                                                    
0     0031b283  _CANOpen_Write                                                 
0     00322a58  _CNST_CANREG                                                   
0     00322c90  _CNST_DSP54IP                                                  
0     00322a6c  _CNST_ENCODER                                                  
0     00322d59  _CNST_INITSRCIP                                                
0     00322c9c  _CNST_IOETH_EC                                                 
0     00322ca8  _CNST_PCIP                                                     
0     0031a4f6  _CONV_ADC_LTC1864                                              
0     0031aee4  _CalcCPULoadEnd                                                
0     003195c8  _CalibrateADMaxValue                                           
0     003195c1  _CalibrateADMinValue                                           
0     00302d30  _ChangeECConfigState                                           
0     0030131b  _ChangeSlavesState                                             
0     00301efd  _CheckConfigOk                                                 
0     00302d0d  _CheckECConfigTimeout                                          
0     00314b4b  _CheckPackge_ReadGeneralRWController                           
0     00314b00  _CheckPackge_WriteGeneralRWController                          
0     0030deab  _ClearBindAddrToSession                                        
0     00300aee  _ClearCyclicUnitControl                                        
0     00306f41  _ClearDBErr                                                    
0     00309ccb  _ClearDriftDatagram                                            
0     00300bb0  _ClearFMMU                                                     
0     00300b4f  _ClearPosAddress                                               
0     00300a81  _ClearRxErrorCount                                             
0     00300ce3  _ClearSYNC0StartTime                                           
0     00300c13  _ClearSyncManage                                               
0     00300c82  _ClearSystemTime                                               
0     0030d585  _CloseEthSession                                               
0     0030d4a0  _CloseEthernet                                                 
0     0031990d  _Clr_BitOut                                                    
0     00318d67  _Clr_Output                                                    
0     00312cd2  _CommComp_ClrRangeFlag                                         
0     0031254a  _CommComp_Driver_Inovance_SendPDO                              
0     003125b6  _CommComp_Driver_Xingtai_SendControl                           
0     00312580  _CommComp_Driver_Xingtai_SendPDO                               
0     003125f4  _CommComp_Driver_Xingtai_SendPF                                
0     0000d808  _CommComp_Robot__aConfig_tab                                   
0     00317968  _CommComp_Robot__s_card_HT_CANopen_SDO_config_finish           
0     003179d5  _CommComp_Robot__s_card_HT_CANopen_custom_operation            
0     0031796f  _CommComp_Robot__s_card_HT_CANopen_event_callback              
0     003178d0  _CommComp_Robot__s_card_HT_add                                 
0     0031791e  _CommComp_Robot__s_card_HT_comp_event_callback                 
0     0031782f  _CommComp_Robot__s_card_HT_init                                
0     0000d840  _CommComp_Robot_aCard_HT                                       
0     003177d3  _CommComp_Robot_add_HT                                         
0     003177ae  _CommComp_Robot_clean                                          
0     00317789  _CommComp_Robot_init                                           
0     00312c7e  _CommComp_SetRangeFlag                                         
0     0000ca0d  _CommComp_driver__aConfig_tab                                  
0     00312635  _CommComp_driver__s_card_inovance_CANopen_custom_operation     
0     003123cf  _CommComp_driver__s_card_inovance_CANopen_event_callback       
0     00312287  _CommComp_driver__s_card_inovance_add                          
0     00312345  _CommComp_driver__s_card_inovance_comp_event_callback          
0     00312101  _CommComp_driver__s_card_inovance_init                         
0     003126b6  _CommComp_driver__s_card_xingtai_CANopen_custom_operation      
0     00312460  _CommComp_driver__s_card_xingtai_CANopen_event_callback        
0     003122e6  _CommComp_driver__s_card_xingtai_add                           
0     0031238a  _CommComp_driver__s_card_xingtai_comp_event_callback           
0     003121b6  _CommComp_driver__s_card_xingtai_init                          
0     0000ca80  _CommComp_driver_aCard_inovance                                
0     0000cb40  _CommComp_driver_aCard_xingtai                                 
0     00312039  _CommComp_driver_add_inovance                                  
0     00312097  _CommComp_driver_add_xingtai                                   
0     00312003  _CommComp_driver_clean                                         
0     00311fcd  _CommComp_driver_init                                          
0     0000c0c0  _CommComp_turntable__aConfig_tab                               
0     0030cd16  _CommComp_turntable__s_card_HT_CANopen_SDO_config_finish       
0     0030cf8c  _CommComp_turntable__s_card_HT_CANopen_custom_operation        
0     0030ce16  _CommComp_turntable__s_card_HT_CANopen_event_callback          
0     0030cc1f  _CommComp_turntable__s_card_HT_add                             
0     0030cc96  _CommComp_turntable__s_card_HT_comp_event_callback             
0     0030cb57  _CommComp_turntable__s_card_HT_init                            
0     0030d133  _CommComp_turntable__s_card_electric_CANopen_SDO_config_finish 
0     0030d30a  _CommComp_turntable__s_card_electric_CANopen_custom_operation  
0     0030d197  _CommComp_turntable__s_card_electric_CANopen_event_callback    
0     0030d0b1  _CommComp_turntable__s_card_electric_add                       
0     0030d0e9  _CommComp_turntable__s_card_electric_comp_event_callback       
0     0030cff1  _CommComp_turntable__s_card_electric_init                      
0     0030cce0  _CommComp_turntable__s_card_hydraulic_CANopen_SDO_config_finish
0     0030ceeb  _CommComp_turntable__s_card_hydraulic_CANopen_custom_operation 
0     0030cd4c  _CommComp_turntable__s_card_hydraulic_CANopen_event_callback   
0     0030cbf2  _CommComp_turntable__s_card_hydraulic_add                      
0     0030cc4c  _CommComp_turntable__s_card_hydraulic_comp_event_callback      
0     0030cac1  _CommComp_turntable__s_card_hydraulic_init                     
0     0000c1c0  _CommComp_turntable_aCard_HT                                   
0     0000c280  _CommComp_turntable_aCard_electric                             
0     0000c100  _CommComp_turntable_aCard_hydraulic                            
0     0030c8a5  _CommComp_turntable_add_HT                                     
0     0030c8fe  _CommComp_turntable_add_electric                               
0     0030c84e  _CommComp_turntable_add_hydraulic                              
0     0030c807  _CommComp_turntable_clean                                      
0     0030c9fb  _CommComp_turntable_get_act_position_1                         
0     0030ca4b  _CommComp_turntable_get_act_speed_1                            
0     0030ca9d  _CommComp_turntable_get_act_voltag                             
0     0030c989  _CommComp_turntable_get_awRsvd                                 
0     0030c9c2  _CommComp_turntable_get_error                                  
0     0030c7c0  _CommComp_turntable_init                                       
0     0030c957  _CommComp_turntable_set_PF_channel                             
0     0030538f  _CommRemoteIOCardInfo_Init                                     
0     0030539a  _CommRemoteIO_Init                                             
0     00312bb3  _Comm_SetReadFlagByDBIndex                                     
0     00312b5b  _Comm_SetWriteFlagByDBIndex                                    
0     00306d89  _Command_ManualKey                                             
0     00318df3  _Commissioning_CalibrateADMax                                  
0     00318e10  _Commissioning_CalibrateADMin                                  
0     00318e55  _Commissioning_CalibrateADSave                                 
0     00318de1  _Commissioning_ResetCalibrateAD                                
0     00318e41  _Commissioning_SetPeripheralMaxVoltage                         
0     00318e2d  _Commissioning_SetPeripheralMinVoltage                         
0     0031b195  _CompLed_Init                                                  
0     0031b1c9  _CompLed_Run                                                   
0     0031b1ad  _CompLed_SetOnOff                                              
0     0031aa00  _CompPulse_Init                                                
0     0031aa27  _CompPulse_Reset                                               
0     0031aa4a  _CompPulse_Run                                                 
0     0031aa8a  _CompPulse_SetTab                                              
0     0031af3e  _ConfigCpuTimer                                                
0     003016d4  _ConfigFMMU                                                    
0     0030181b  _ConfigPDOMap                                                  
0     003012c4  _ConfigSlavesAddress                                           
0     00301596  _ConfigSyncManager                                             
0     0000b3b8  _CpuTimer0                                                     
0     00000c00  _CpuTimer0Regs                                                 
0     0000b3a8  _CpuTimer1                                                     
0     00000c08  _CpuTimer1Regs                                                 
0     0000b3b0  _CpuTimer2                                                     
0     00000c10  _CpuTimer2Regs                                                 
0     00302e2c  _CreatTaskEtherCATMaster_App                                   
0     0031b611  _CreatTask_Temper                                              
0     0031b648  _CreatTask_Temper_FastMold                                     
0     0031b63c  _CreatTask_Temper_NormalMold                                   
0     0031a73c  _CreateTaskLed                                                 
0     0031b6aa  _CreateTaskNet                                                 
0     003161d4  _CreateTaskNet_HMI                                             
0     003106bb  _CreateTaskNet_PC                                              
0     0030602f  _CreateTaskNet_master                                          
0     00316f99  _CreateTask_EthercatMaster                                     
0     003198a9  _Create_AD                                                     
0     00312ff6  _Create_Access                                                 
0     003197a8  _Create_BitIn                                                  
0     003197ad  _Create_BitOut                                                 
0     00312907  _Create_Comm                                                   
0     0030ecba  _Create_CommCANOpen                                            
0     0031981f  _Create_DA                                                     
0     003197b2  _Create_Encoder                                                
0     00314706  _Create_GeneralRW                                              
0     0031818d  _Create_Rexroth                                                
0     00317df6  _Create_Task                                                   
0     00318c25  _Create_TaskIO                                                 
0     00317e76  _Create_TimerintTask                                           
0     00317ee1  _Create_UnTimerintTask                                         
0     00317e0d  _Create_WhileloopTask                                          
1     0033fff8  _CsmPwl                                                        
0     00000ae0  _CsmRegs                                                       
0     0031a361  _CsmUnlock                                                     
0     00309d86  _DATALOG_ISR                                                   
0     003131e8  _DB_Access_Read_ID                                             
0     0031316f  _DB_Access_Read_State                                          
0     0031310d  _DB_Access_Read_Type                                           
0     0031326c  _DB_Access_Read_Value                                          
0     003131a6  _DB_Access_Write_ID                                            
0     00313138  _DB_Access_Write_State                                         
0     003130e2  _DB_Access_Write_Type                                          
0     0031322a  _DB_Access_Write_Value                                         
0     00314683  _DB_AxisAccess_ReadData                                        
0     00314657  _DB_AxisAccess_WriteData                                       
0     00314665  _DB_AxisAccess_WriteId                                         
0     00314674  _DB_AxisAccess_WriteValue                                      
0     00317d99  _DB_CallCallBack                                               
0     00317dd1  _DB_CallbackDefault                                            
0     003148db  _DB_GeneralRW_ReadValue_Enable                                 
0     00314a7c  _DB_GeneralRW_Read_Index                                       
0     00314879  _DB_GeneralRW_Read_State                                       
0     00314819  _DB_GeneralRW_Read_Type                                        
0     003148b0  _DB_GeneralRW_WriteValue_Enable                                
0     00314a61  _DB_GeneralRW_Write_Index                                      
0     00314842  _DB_GeneralRW_Write_State                                      
0     003147f0  _DB_GeneralRW_Write_Type                                       
0     00317d0a  _DB_GetData                                                    
0     00317d3f  _DB_GetDataBySysIndex                                          
0     00317d74  _DB_GetDataByUserIndex                                         
0     00317c7a  _DB_GetIndex                                                   
0     00317c9c  _DB_IDToIndex                                                  
0     00317cbb  _DB_IndexToID                                                  
0     0031446e  _DB_MoldTemper_DeepLearn                                       
0     00314619  _DB_OldWatchReadAddr                                           
0     0031463b  _DB_OldWatchReadValue                                          
0     003145e8  _DB_OldWatchType                                               
0     003145fc  _DB_OldWatchWriteValue                                         
0     00314429  _DB_PID_Change                                                 
0     00314456  _DB_PipeTemper_DeepLearn                                       
0     003144f3  _DB_PwOnPrted                                                  
0     00314405  _DB_RapidCompensation                                          
0     00317ce4  _DB_SetData                                                    
0     00317d30  _DB_SetDataBySysIndex                                          
0     00317d4e  _DB_SetDataByUserIndex                                         
0     00314399  _DB_SetNodeID_PwmtrCard                                        
0     003140c3  _DB_SetNodeID_TemperCard                                       
0     00314486  _DB_SetTempHeatChkDegree                                       
0     003144de  _DB_SetTemperMoldAdjCmd                                        
0     003144c9  _DB_SetTemperPipeAdjCmd                                        
0     003143dd  _DB_SetTemper_FastMoldOpt                                      
0     003143cc  _DB_SetTemper_Preserve                                         
0     00317cc7  _DB_SizeofBData                                                
0     00314114  _DB_TemperCard_HeatCmd                                         
0     003140fa  _DB_TemperCard_HeatMinTime                                     
0     00314141  _DB_TemperCard_HeatType                                        
0     003143b6  _DB_TemperCard_Seg_Absolute_Set                                
0     00314365  _DB_TemperCard_Seg_DeviceType                                  
0     003141f6  _DB_TemperCard_Seg_Enhance_ratio                               
0     003144a0  _DB_TemperCard_Seg_HeatChkDegree                               
0     0031415e  _DB_TemperCard_Seg_HeatWay                                     
0     00314197  _DB_TemperCard_Seg_OutputCycle                                 
0     00314255  _DB_TemperCard_Seg_Set_PID_KI                                  
0     00314228  _DB_TemperCard_Seg_Set_PID_KP                                  
0     003142f0  _DB_TemperCard_Seg_Use                                         
0     00314284  _DB_TemperCard_Seg_tSensorType                                 
0     00314130  _DB_TemperCard_SoftHeat                                        
0     00314314  _DB_TemperCard_UpdateSoftSN                                    
0     003140e0  _DB_TemperCard_tSensorType                                     
0     0031457a  _DB_WatchReadAddr                                              
0     003145b4  _DB_WatchReadValue                                             
0     0031451a  _DB_WatchType                                                  
0     00314545  _DB_WatchWriteValue                                            
0     00309645  _DCDriftCompensation                                           
0     00309581  _DCOffsetCompensation                                          
0     0030937d  _DCPropagationDelayCalc                                        
0     0030a6a0  _DINTCH1_ISR                                                   
0     0030a6ce  _DINTCH2_ISR                                                   
0     0030a6fc  _DINTCH3_ISR                                                   
0     0030a72a  _DINTCH4_ISR                                                   
0     0030a758  _DINTCH5_ISR                                                   
0     0030a786  _DINTCH6_ISR                                                   
0     00316b89  _DMACH1AddrConfig                                              
0     00316b99  _DMACH1BurstConfig                                             
0     00316bcc  _DMACH1ModeConfig                                              
0     00316ba9  _DMACH1TransferConfig                                          
0     00316bb9  _DMACH1WrapConfig                                              
0     00316c30  _DMACH2AddrConfig                                              
0     00316c40  _DMACH2BurstConfig                                             
0     00316c73  _DMACH2ModeConfig                                              
0     00316c50  _DMACH2TransferConfig                                          
0     00316c60  _DMACH2WrapConfig                                              
0     00316cd7  _DMACH3AddrConfig                                              
0     00316ce7  _DMACH3BurstConfig                                             
0     00316d1a  _DMACH3ModeConfig                                              
0     00316cf7  _DMACH3TransferConfig                                          
0     00316d07  _DMACH3WrapConfig                                              
0     00316d7e  _DMACH4AddrConfig                                              
0     00316d8e  _DMACH4BurstConfig                                             
0     00316dc1  _DMACH4ModeConfig                                              
0     00316d9e  _DMACH4TransferConfig                                          
0     00316dae  _DMACH4WrapConfig                                              
0     00316e25  _DMACH5AddrConfig                                              
0     00316e35  _DMACH5BurstConfig                                             
0     00316e68  _DMACH5ModeConfig                                              
0     00316e45  _DMACH5TransferConfig                                          
0     00316e55  _DMACH5WrapConfig                                              
0     00316ecc  _DMACH6AddrConfig                                              
0     00316edc  _DMACH6BurstConfig                                             
0     00316f0f  _DMACH6ModeConfig                                              
0     00316eec  _DMACH6TransferConfig                                          
0     00316efc  _DMACH6WrapConfig                                              
0     00316b7c  _DMAInitialize                                                 
0     00008351  _DSP28x_usDelay                                                
0     00008046  _DWORD_memcpy                                                  
0     00008018  _DWORD_memset                                                  
0     0030d88e  _DealARP                                                       
0     0030d812  _DealData                                                      
0     0031729f  _DealECSlaveHandle                                             
0     0030460b  _DealECSlaveHandle_New                                         
0     0030d797  _DealFrame                                                     
0     0030d9d3  _DealICMP                                                      
0     0030d951  _DealIP                                                        
0     00317057  _DealSwitch_EthercatMaster                                     
0     0030db13  _DealTECH                                                      
0     0030da93  _DealUDP                                                       
0     0031b6e2  _DefaultDealIP                                                 
0     0031b6e7  _DefaultDealTECH                                               
0     0031a76b  _DestoryTaskLed                                                
0     0031b6da  _DestoryTaskNet                                                
0     0031621f  _DestoryTaskNet_HMI                                            
0     003106fe  _DestoryTaskNet_PC                                             
0     0030605d  _DestoryTaskNet_master                                         
0     00316ff9  _DestoryTask_EthercatMaster                                    
0     0031b62d  _DestoryTask_Temper                                            
0     0031a4e1  _DestroyADC_LTC1864                                            
0     00317e0c  _Destroy_Task                                                  
0     00318c4e  _Destroy_TaskIO                                                
0     00317f82  _Destroy_TimerintTask                                          
0     00317fae  _Destroy_UnTimerintTask                                        
0     00317f56  _Destroy_WhileloopTask                                         
0     00000880  _DevEmuRegs                                                    
0     0031a2ad  _DisableDog                                                    
0     00300d44  _DisableSYNCControl                                            
0     00300f94  _DisableWatchdogTime                                           
0     00300ff5  _DisableWatchdogTimeProcess                                    
0     0030dedb  _DisactivateEthSession                                         
0     00001000  _DmaRegs                                                       
0     0030f3e8  _DownloadCANSDO_Easy                                           
0     0030a924  _ECAN0INTA_ISR                                                 
0     0030a980  _ECAN0INTB_ISR                                                 
0     0030a952  _ECAN1INTA_ISR                                                 
0     0030a9ae  _ECAN1INTB_ISR                                                 
0     0030a41c  _ECAP1_INT_ISR                                                 
0     0030a44a  _ECAP2_INT_ISR                                                 
0     0030a478  _ECAP3_INT_ISR                                                 
0     0030a4a6  _ECAP4_INT_ISR                                                 
0     0030a4d4  _ECAP5_INT_ISR                                                 
0     0030a502  _ECAP6_INT_ISR                                                 
0     00302f78  _ECATMasterAfterClearError_App                                 
0     00302f79  _ECATMasterBeforeRun_App                                       
0     00302f77  _ECATMasterDoClearError_App                                    
0     003170aa  _ECATMasterGetError                                            
0     003170c3  _ECATMasterGetOfflineIndex                                     
0     00302f6d  _ECATMasterInitSlaveError_App                                  
0     003042a9  _ECATMasterRx_BTL6_V107                                        
0     00304204  _ECATMasterRx_BTL6_V11E                                        
0     003170a1  _ECATMasterRx_PDOCheck                                         
0     00304502  _ECATMasterRx_TR_LINEAR                                        
0     00302d22  _ECConfigFunc                                                  
0     00300555  _ECMaster_Deal                                                 
0     0030060b  _ECMaster_DealSwitch                                           
0     00311ef8  _ECMaster_DownloadSDO                                          
0     00311f26  _ECMaster_DownloadSDONormal                                    
0     003003f3  _ECMaster_Init                                                 
0     0030054b  _ECMaster_Reset                                                
0     003022ba  _ECMaster_Run                                                  
0     0030f62c  _ECMaster_SetDnsName                                           
0     00311edf  _ECMaster_UploadSDO                                            
0     00311f11  _ECMaster_UploadSDONormal                                      
0     0031170f  _ECSlave_CoE_DealMailbox                                       
0     00311bed  _ECSlave_CoE_SDODownloadExpeditedRequest                       
0     00311ca0  _ECSlave_CoE_SDODownloadNormalRequest                          
0     00311d68  _ECSlave_CoE_SDODownloadSegmentRequest                         
0     00311b13  _ECSlave_CoE_SDOUploadRequest                                  
0     00311b8b  _ECSlave_CoE_SDOUploadSegmentRequest                           
0     0030f63a  _ECSlave_EoE_DealMailbox                                       
0     0030f850  _ECSlave_EoE_SendFragment                                      
0     0030f752  _ECSlave_EoE_SendInit                                          
0     0030f983  _ECSlave_EoE_SetIpParameter                                    
0     00315525  _ECSlave_FoE_DealMailbox                                       
0     00315861  _ECSlave_FoE_Init                                              
0     003158a0  _ECSlave_FoE_ParseOptions                                      
0     003159d8  _ECSlave_FoE_StartRead                                         
0     003159e6  _ECSlave_FoE_StartWrite                                        
0     00315a71  _ECSlave_FoE__Data                                             
0     00315922  _ECSlave_FoE__Start                                            
0     0031197d  _ECSlave_SendCoE                                               
0     0030f6a7  _ECSlave_SendEoE                                               
0     003156db  _ECSlave_SendFoE                                               
0     00006240  _ECanaLAMRegs                                                  
0     000062c0  _ECanaMOTORegs                                                 
0     00006280  _ECanaMOTSRegs                                                 
0     00006300  _ECanaMboxes                                                   
0     00006200  _ECanaRegs                                                     
0     00006040  _ECanbLAMRegs                                                  
0     000060c0  _ECanbMOTORegs                                                 
0     00006080  _ECanbMOTSRegs                                                 
0     00006100  _ECanbMboxes                                                   
0     00006000  _ECanbRegs                                                     
0     00006a00  _ECap1Regs                                                     
0     00006a20  _ECap2Regs                                                     
0     00006a40  _ECap3Regs                                                     
0     00006a60  _ECap4Regs                                                     
0     00006a80  _ECap5Regs                                                     
0     00006aa0  _ECap6Regs                                                     
0     00309dee  _EMUINT_ISR                                                    
0     0030a308  _EPWM1_INT_ISR                                                 
0     0030a1f4  _EPWM1_TZINT_ISR                                               
0     0030a336  _EPWM2_INT_ISR                                                 
0     0030a222  _EPWM2_TZINT_ISR                                               
0     0030a364  _EPWM3_INT_ISR                                                 
0     0030a250  _EPWM3_TZINT_ISR                                               
0     0030a392  _EPWM4_INT_ISR                                                 
0     0030a27e  _EPWM4_TZINT_ISR                                               
0     0030a3c0  _EPWM5_INT_ISR                                                 
0     0030a2ac  _EPWM5_TZINT_ISR                                               
0     0030a3ee  _EPWM6_INT_ISR                                                 
0     0030a2da  _EPWM6_TZINT_ISR                                               
0     00006800  _EPwm1Regs                                                     
0     00006840  _EPwm2Regs                                                     
0     00006880  _EPwm3Regs                                                     
0     000068c0  _EPwm4Regs                                                     
0     00006900  _EPwm5Regs                                                     
0     00006940  _EPwm6Regs                                                     
0     0030a530  _EQEP1_INT_ISR                                                 
0     0030a55e  _EQEP2_INT_ISR                                                 
0     00006b00  _EQep1Regs                                                     
0     00006b40  _EQep2Regs                                                     
0     0031b9ab  _EnableInterrupts                                              
0     0030105c  _EnableWatchdogTimeProcess                                     
0     0031a0e8  _Error_App_Init                                                
0     0031a0f0  _Error_App_Reset                                               
0     0031a0eb  _Error_App_Run                                                 
0     0000cbfc  _Error_App__checkTimer                                         
0     0000cbfe  _Error_App__task                                               
0     00322db3  _FOOTER_REQ                                                    
0     00322db2  _FOOTER_RES                                                    
0     0030d60c  _FindAllParamEthSession                                        
0     0030d692  _FindIPEthSession                                              
0     0030d6c4  _FindMACEthSession                                             
0     0030df07  _FindMACEthSession_TECH                                        
0     00000a80  _FlashRegs                                                     
0     0000ca03  _Flow_Xingtai                                                  
0     003006bd  _FlushDatagram                                                 
0     00314c43  _GeneralRW_Read                                                
0     00314cce  _GeneralRW_ReadGeneralRW                                       
0     00314cb9  _GeneralRW_SearchReadItem                                      
0     00314ca4  _GeneralRW_SearchWriteItem                                     
0     00314bc3  _GeneralRW_Write                                               
0     00314d3c  _GeneralRW_WriteGeneralRW                                      
0     0000cc00  _GeneralRW__aController                                        
0     00322d9c  _GeneralRW__base_index                                         
0     00305340  _GetAD_RemoteIO                                                
0     003198da  _GetAllInput                                                   
0     003195e3  _GetCalibrateADValue                                           
0     003133eb  _GetChannel_ReadAccessController                               
0     00314a31  _GetChannel_ReadGeneralRWController                            
0     003133e1  _GetChannel_WriteAccessController                              
0     00314a27  _GetChannel_WriteGeneralRWController                           
0     00308e97  _GetClockParam                                                 
0     00306ec7  _GetCommReadyState                                             
0     0030663a  _GetConfiguration                                              
0     003196c4  _GetDAChannel1                                                 
0     003196c8  _GetDAChannel2                                                 
0     00300efa  _GetDLStatus                                                   
0     00308f30  _GetDataLinkStatus                                             
0     003170e7  _GetECSlaveIdxByNodeID                                         
0     00306620  _GetEcho_AD_DA                                                 
0     00306616  _GetEcho_Boot                                                  
0     00306626  _GetEcho_RetransmitData                                        
0     0030662c  _GetEcho_RetransmitDataLess                                    
0     00306634  _GetEcho_SlowActual                                            
0     003052ff  _GetInput_RemoteIO                                             
0     00310d09  _GetLinkState_PC                                               
0     00306649  _GetMachineParameters1                                         
0     00306658  _GetMachineParameters2                                         
0     00306685  _GetMachineParameters_B                                        
0     00306106  _GetMasterPowerOn                                              
0     0030625c  _GetMasterSoftBoot                                             
0     00306667  _GetMoldSet1                                                   
0     00306676  _GetMoldSet2                                                   
0     00306694  _GetMoldSet_B1                                                 
0     003066a3  _GetMoldSet_B2                                                 
0     003166c6  _GetMoldsetState                                               
0     00306270  _GetOperateState                                               
0     0030536f  _GetPositionCount_RemoteIO                                     
0     0030949a  _GetProcessUnitTime                                            
0     003065cf  _GetRetransmitData                                             
0     0030660e  _GetRetransmitDataLess                                         
0     00309756  _GetSYNCPulseLength                                            
0     00314ea2  _GetSegNum_TemperCard                                          
0     0030dc90  _GetSessionchState                                             
0     00309289  _GetSlavePortTime                                              
0     003008a2  _GetSlaves                                                     
0     003013e9  _GetSlavesState                                                
0     00306267  _GetSlowActual                                                 
0     0030155e  _GetSmConfig                                                   
0     003097f3  _GetSystemTime0                                                
0     00309bde  _GetSystemTime1                                                
0     003133d7  _GetTired_ReadAccessController                                 
0     00314a1d  _GetTired_ReadGeneralRWController                              
0     003133cd  _GetTired_WriteAccessController                                
0     00314a13  _GetTired_WriteGeneralRWController                             
0     0031bc97  _GetVersion_Kernel                                             
0     003198b3  _Get_AD                                                        
0     003198de  _Get_BitIn                                                     
0     003197d7  _Get_Encoder                                                   
0     00318ca0  _Get_IODeviceData                                              
0     0031a0fd  _Get_MasterError                                               
0     00006f80  _GpioCtrlRegs                                                  
0     00006fc0  _GpioDataRegs                                                  
0     00006fe0  _GpioIntRegs                                                   
0     0031a7b2  _GreenLed                                                      
0     0000dbc0  _HCan                                                          
0     00322db1  _HEADER_REQ                                                    
0     00322db0  _HEADER_RES                                                    
0     0031b963  _HOSTclose                                                     
0     0031b1f8  _HOSTlseek                                                     
0     0031b6ec  _HOSTopen                                                      
0     0031b72c  _HOSTread                                                      
0     0031b76b  _HOSTrename                                                    
0     0031b9fd  _HOSTunlink                                                    
0     0031b7e6  _HOSTwrite                                                     
0     0000d805  _HTRobotBaudrateConf                                           
0     0031ae8a  _HexToL                                                        
0     0030a7b4  _I2CINT1A_ISR                                                  
0     0030a7e2  _I2CINT2A_ISR                                                  
0     00007900  _I2caRegs                                                      
0     00309e56  _ILLEGAL_ISR                                                   
0     00309d1e  _INT13_ISR                                                     
0     00309d52  _INT14_ISR                                                     
0     00322d26  _IO_BitMask                                                    
0     003fead8  _IQ10mpyRndSatTable                                            
0     003feacc  _IQ11mpyRndSatTable                                            
0     003feac0  _IQ12mpyRndSatTable                                            
0     003feab4  _IQ13mpyRndSatTable                                            
0     003feaa8  _IQ14mpyRndSatTable                                            
0     003fea9c  _IQ15mpyRndSatTable                                            
0     003fea90  _IQ16mpyRndSatTable                                            
0     003fea84  _IQ17mpyRndSatTable                                            
0     003fea78  _IQ18mpyRndSatTable                                            
0     003fea6c  _IQ19mpyRndSatTable                                            
0     003feb44  _IQ1mpyRndSatTable                                             
0     003fea60  _IQ20mpyRndSatTable                                            
0     003fea54  _IQ21mpyRndSatTable                                            
0     003fea48  _IQ22mpyRndSatTable                                            
0     003fea3c  _IQ23mpyRndSatTable                                            
0     003fea30  _IQ24mpyRndSatTable                                            
0     003fea24  _IQ25mpyRndSatTable                                            
0     003fea18  _IQ26mpyRndSatTable                                            
0     003fea0c  _IQ27mpyRndSatTable                                            
0     003fea00  _IQ28mpyRndSatTable                                            
0     003fe9f4  _IQ29mpyRndSatTable                                            
0     003feb38  _IQ2mpyRndSatTable                                             
0     003fe9e8  _IQ30mpyRndSatTable                                            
0     003feb2c  _IQ3mpyRndSatTable                                             
0     003feb20  _IQ4mpyRndSatTable                                             
0     003feb14  _IQ5mpyRndSatTable                                             
0     003feb08  _IQ6mpyRndSatTable                                             
0     003feafc  _IQ7mpyRndSatTable                                             
0     003feaf0  _IQ8mpyRndSatTable                                             
0     003feae4  _IQ9mpyRndSatTable                                             
0     003fe824  _IQatan2HalfPITable                                            
0     003fe862  _IQatan2Table                                                  
0     003fe9e8  _IQatan2TableEnd                                               
0     003fe100  _IQcosTable                                                    
0     003fe502  _IQcosTableEnd                                                 
0     003fe502  _IQdivRoundSatTable                                            
0     003fe510  _IQdivTable                                                    
0     003fe712  _IQdivTableEnd                                                 
0     003fe712  _IQisqrtRoundSatTable                                          
0     003fe722  _IQisqrtTable                                                  
0     003fe824  _IQisqrtTableEnd                                               
0     003fe9e8  _IQmpyRndSatTable                                              
0     003feb50  _IQmpyRndSatTableEnd                                           
0     003fe000  _IQsinTable                                                    
0     003fe400  _IQsinTableEnd                                                 
0     003fe712  _IQsqrtRoundSatTable                                           
0     003fe722  _IQsqrtTable                                                   
0     003fe824  _IQsqrtTableEnd                                                
0     0031bc59  _InitADC                                                       
0     0031a4a1  _InitADC_LTC1864                                               
0     00319465  _InitADCalibrate                                               
0     0031af05  _InitCpuTimers                                                 
0     003009b4  _InitEEPROMConfig                                              
0     00008336  _InitFlash                                                     
0     0031ab3a  _InitGpio                                                      
0     0031b4aa  _InitIO                                                        
0     00304ac3  _InitMap_RemoteIO                                              
0     0031a306  _InitPeripheralClocks                                          
0     0031b98c  _InitPieCtrl                                                   
0     0031ba64  _InitPieVectTable                                              
0     0031a2b5  _InitPll                                                       
0     0031b65e  _InitQEPA                                                      
0     0031b674  _InitQEPB                                                      
0     00300694  _InitSendDatagram                                              
0     0030067b  _InitSendECFrameHeader                                         
0     0031bc8d  _InitSpiDA                                                     
0     0031a29a  _InitSysCtrl                                                   
0     00319f6f  _InitXintf                                                     
0     0031a034  _InitXintf16Gpio                                               
0     00319fed  _InitXintf32Gpio                                               
0     003128ea  _Init_Comm                                                     
0     00317aba  _Init_DB                                                       
0     003181f7  _Init_DataRexrothController                                    
0     00316818  _Init_EtherCat                                                 
0     0031a591  _Init_Led                                                      
0     00313306  _Init_ReadAccessController                                     
0     00314957  _Init_ReadGeneralRWController                                  
0     00304a20  _Init_RemoteIO                                                 
0     003181a0  _Init_RexrothControllerData                                    
0     0031b130  _Init_Task_Watch                                               
0     00314e66  _Init_TemperCard                                               
0     00315bc9  _Init_Watch                                                    
0     003132aa  _Init_WriteAccessController                                    
0     00314906  _Init_WriteGeneralRWController                                 
0     0031b47b  _Initperipheral                                                
0     0000ca0a  _InovanceBaudrateConf                                          
0     00322dd5  _LEDSHOW_1000MS                                                
0     00322dd8  _LEDSHOW_100MS                                                 
0     003224c7  _LEDSHOW_OFF                                                   
0     00322dfa  _LEDSHOW_ON                                                    
0     00322d78  _LEDSHOW_SERVICE_STOP                                          
0     0031a792  _LED_OFF                                                       
0     0031a77a  _LED_ON                                                        
0     0030aaf0  _LUF_ISR                                                       
0     0030aac2  _LVF_ISR                                                       
0     0031a63a  _Led_Error                                                     
0     0031a62c  _Led_HMILink                                                   
0     0031a61e  _Led_MasterLink                                                
0     0000b406  _MOTIONCONFIG_TABLE                                            
0     0030a644  _MRINTA_ISR                                                    
0     0030a5e8  _MRINTB_ISR                                                    
0     0030a672  _MXINTA_ISR                                                    
0     0030a616  _MXINTB_ISR                                                    
0     000082bd  _MainISR                                                       
0     003065f3  _MainloopParseHMIData                                          
0     00306d37  _MakeCRCValue                                                  
0     00304b50  _Map_RemoteIO                                                  
0     00005000  _McbspaRegs                                                    
0     00005040  _McbspbRegs                                                    
0     0000a0d4  _MoldsetState                                                  
0     0000a0cf  _MsgState                                                      
0     00309e22  _NMI_ISR                                                       
0     00314f44  _OilCompensate_CalcLinear                                      
0     00314efd  _OilCompensate_Init                                            
0     00314fdb  _OilCompensate_Run                                             
0     00314f1a  _OilCompensate_SetOilSegNumber                                 
0     0030d4b1  _OpenEthSession                                                
0     0030d46c  _OpenEthernet                                                  
0     0000c352  _PC_LinkState                                                  
0     0000c356  _PC_MoldsetState                                               
0     0000c35c  _PC_MsgState                                                   
0     0030ab1e  _PIE_RESERVED                                                  
0     003060b7  _ParseNetData                                                  
0     00316280  _ParseNetData_FromHMI                                          
0     00306d80  _ParseOperateMotion                                            
0     0031291d  _Parse_Comm                                                    
0     0030ecd2  _Parse_CommCANOpen                                             
0     00380090  _PartIdRegs                                                    
0     00000ce0  _PieCtrlRegs                                                   
0     00000d00  _PieVectTable                                                  
0     00320e6a  _PieVectTableInit                                              
0     00310d0d  _PostMsg_PC                                                    
0     0000ca02  _Press_Xingtai                                                 
0     0031910d  _PwmtrCard_Init                                                
0     00309dba  _RTOSINT_ISR                                                   
0     00300355  _RamFuncs_loadend                                              
0     003003b1  _RamFuncs_loadend1                                             
0     00300000  _RamFuncs_loadstart                                            
0     00300355  _RamFuncs_loadstart1                                           
0     00008000  _RamFuncs_runstart                                             
0     00008355  _RamFuncs_runstart1                                            
0     0031bc5e  _ReadADC                                                       
0     0030913d  _ReadBeforeSyncTime                                            
0     00318d85  _ReadEEPROM_ADCalibrateInfo                                    
0     00301249  _ReadEepromData                                                
0     003011ca  _ReadEepromReadState                                           
0     003010d0  _ReadEepromSetAddre                                            
0     0030114a  _ReadEepromSetContr                                            
0     0031abb9  _ReadIO                                                        
0     0030d7b6  _ReadNetData                                                   
0     0031b68a  _ReadQEPA                                                      
0     0031b692  _ReadQEPB                                                      
0     0031340f  _ReadReadState_AccessController                                
0     00314a4f  _ReadReadState_GeneralRWController                             
0     00301f63  _ReadRecvPDOMap                                                
0     003090f6  _ReadRefSysTimeSlaves                                          
0     00309093  _ReadRefSysTimeToOtherSlaves                                   
0     0031b572  _ReadString_EEPROM                                             
0     003096b5  _ReadSysTimeDifference                                         
0     0031350f  _ReadValue_AccessController                                    
0     00314bac  _ReadValue_GeneralRWController                                 
0     003133fa  _ReadWriteState_AccessController                               
0     00314a40  _ReadWriteState_GeneralRWController                            
0     00318d28  _Read_Input                                                    
0     0031a7aa  _RedLed                                                        
0     003046d6  _RefreshMT_HUB_Error                                           
0     0031733a  _RegCallBack_DealECSlaveHandle_New                             
0     003172c2  _RegCallBack_ECATMasterAfterClearError                         
0     003172ca  _RegCallBack_ECATMasterBeforeRun                               
0     003172ba  _RegCallBack_ECATMasterDoClearError                            
0     003172b2  _RegCallBack_ECATMasterInitSlaveError                          
0     00317312  _RegCallBack_ResetECSlave_BTL6_V107                            
0     0031730a  _RegCallBack_ResetECSlave_BTL6_V11E                            
0     003172d2  _RegCallBack_ResetECSlave_E2C                                  
0     003172ea  _RegCallBack_ResetECSlave_HTJ6_EleInj                          
0     003172e2  _RegCallBack_ResetECSlave_HTJ6_Oil                             
0     0031732a  _RegCallBack_ResetECSlave_HTJ6_PP                              
0     003172f2  _RegCallBack_ResetECSlave_HTJ6_Plus                            
0     00317302  _RegCallBack_ResetECSlave_HT_EH1708X                           
0     003172da  _RegCallBack_ResetECSlave_HYB5TB                               
0     003172fa  _RegCallBack_ResetECSlave_MT_HUB_8A                            
0     0031731a  _RegCallBack_ResetECSlave_PARKER_COMPAX3_FLUID                 
0     00317332  _RegCallBack_ResetECSlave_REXROTH                              
0     00317322  _RegCallBack_ResetECSlave_TR_LINEAR                            
0     003162d8  _ReqActValue                                                   
0     0030dc2d  _ReqActivateEthSession                                         
0     00316424  _ReqCommand                                                    
0     0031641e  _ReqCurveValue                                                 
0     00316541  _ReqLinkState                                                  
0     0031658d  _ReqMoldsetState                                               
0     003165f1  _ReqMoldsetUpdate                                              
0     00316418  _ReqMsgValue                                                   
0     0031632b  _ReqReadRefValue                                               
0     00316378  _ReqWriteRefValue                                              
0     003195cf  _ResetCalibrateADValue                                         
0     0030d4a6  _ResetParamEth                                                 
0     003042d3  _Reset_BTL6_V107                                               
0     0030422e  _Reset_BTL6_V11E                                               
0     00317128  _Reset_ECSlave                                                 
0     00303428  _Reset_ECSlave_HTJ6_EleInj                                     
0     00303098  _Reset_ECSlave_HTJ6_Oil                                        
0     00303b76  _Reset_ECSlave_HTJ6_PP                                         
0     003037b2  _Reset_ECSlave_HTJ6_Plus                                       
0     003041f3  _Reset_HT_EH1708X                                              
0     0030400a  _Reset_MT_HUB_8A                                               
0     0030434e  _Reset_PARKER_COMPAX3_FLUID                                    
0     003046e2  _Reset_Rexroth_HMC                                             
0     0030452c  _Reset_TR_LINEAR                                               
0     0031642a  _RespActValue                                                  
0     00316538  _RespCommand                                                   
0     00316534  _RespCurveValue                                                
0     00316589  _RespLinkState                                                 
0     003165b4  _RespMoldsetState                                              
0     003166c2  _RespMoldsetUpdate                                             
0     003164af  _RespRefValue                                                  
0     003166d2  _RespRefValueAuto                                              
0     00317073  _Restart_EtherCatMaster                                        
0     003170d8  _Restart_SDOUpload                                             
0     003182fc  _Rexroth_Read                                                  
0     003183da  _Rexroth_ReadRexroth                                           
0     00318262  _Rexroth_Write                                                 
0     0031821d  _Rexroth_WriteHandler                                          
0     00318413  _Rexroth_WriteRexroth                                          
0     0000cf80  _Rexroth__aController                                          
0     00322dfc  _Rexroth__base_index                                           
0     0030dc51  _RoutineCheckSessionState                                      
0     0031a7bb  _RunLed                                                        
0     00306c4b  _RunTaskHMIFifoRead                                            
0     0031b6e1  _RunTaskNet                                                    
0     00316220  _RunTaskNet_HMI                                                
0     003106ff  _RunTaskNet_PC                                                 
0     0030605e  _RunTaskNet_master                                             
0     00316ffa  _RunTask_EthercatMaster                                        
0     0031b633  _RunTask_Temper                                                
0     0031b659  _RunTask_Temper_FastMold                                       
0     0031b654  _RunTask_Temper_NormalMold                                     
0     00313041  _Run_Access                                                    
0     00313366  _Run_AccessController                                          
0     0030ecef  _Run_CommCANOpen                                               
0     00317c79  _Run_DB                                                        
0     00316837  _Run_EtherCat                                                  
0     00312b3e  _Run_FastRun                                                   
0     0031474f  _Run_GeneralRW                                                 
0     003149ac  _Run_GeneralRWController                                       
0     0031a5c3  _Run_Led                                                       
0     003181cd  _Run_Rexroth                                                   
0     00318203  _Run_RexrothController                                         
0     00312932  _Run_SlowRun                                                   
0     00318c58  _Run_TaskAD                                                    
0     00318c4f  _Run_TaskIO                                                    
0     0031b16b  _Run_Task_Watch                                                
0     00318045  _Run_TimerintTask                                              
0     003180ab  _Run_UnTimerintTask                                            
0     00317fda  _Run_WhileloopTask                                             
0     0030eec1  _SCANOpenCompUnique_Init                                       
0     0030eef0  _SCANOpenCompUnique_InitConfigInfo                             
0     0030eefe  _SCANOpenCompUnique_InitEventCallBack                          
0     0030ef0c  _SCANOpenCompUnique_SetNodeID                                  
0     0030eeab  _SCANOpenSubCompUnique_Init                                    
0     0030eeb3  _SCANOpenSubCompUnique_InitDBIndexToODInfo                     
0     0030a86c  _SCIRXINTA_ISR                                                 
0     0030a8c8  _SCIRXINTB_ISR                                                 
0     0030a810  _SCIRXINTC_ISR                                                 
0     0030a89a  _SCITXINTA_ISR                                                 
0     0030a8f6  _SCITXINTB_ISR                                                 
0     0030a83e  _SCITXINTC_ISR                                                 
0     00312ee3  _SCommComp_AddSubComp                                          
0     00312f8f  _SCommComp_ClrAllWriteFlag                                     
0     00312f47  _SCommComp_ClrSDOState                                         
0     00312efc  _SCommComp_DelSubComp                                          
0     00312e3f  _SCommComp_Init                                                
0     00312e85  _SCommComp_InitCustomFunc                                      
0     00312e77  _SCommComp_InitEventCallBack                                   
0     00312f65  _SCommComp_SetAllReadFlag                                      
0     00312f50  _SCommComp_SetAllSyncFlag                                      
0     00312f7a  _SCommComp_SetAllWriteFlag                                     
0     00312ebb  _SCommComp_SetCommType                                         
0     00312e93  _SCommComp_SetState                                            
0     0031915a  _SCommPwmtrCardInfo_Init                                       
0     00319165  _SCommPwmtrCard_Init                                           
0     00312e34  _SCommSubComp_ClrAllWriteDBFlag                                
0     00312e0a  _SCommSubComp_ClrWriteFlag                                     
0     00312d26  _SCommSubComp_Init                                             
0     00312dc2  _SCommSubComp_InitReadInfo                                     
0     00312d79  _SCommSubComp_InitSyncInfo                                     
0     00312d95  _SCommSubComp_InitWriteInfo                                    
0     00312e1e  _SCommSubComp_SetAllReadDBFlag                                 
0     00312e13  _SCommSubComp_SetAllSyncDBFlag                                 
0     00312e29  _SCommSubComp_SetAllWriteDBFlag                                
0     00312df8  _SCommSubComp_SetReadFlag                                      
0     00312def  _SCommSubComp_SetSyncFlag                                      
0     00312e01  _SCommSubComp_SetWriteFlag                                     
0     0030a0b2  _SEQ1INT_ISR                                                   
0     0030a0e0  _SEQ2INT_ISR                                                   
0     003168cc  _SEtherCatCompUnique_Init                                      
0     003168f1  _SEtherCatCompUnique_InitEvent                                 
0     003168ff  _SEtherCatCompUnique_SetNodeID                                 
0     003168b6  _SEtherCatSubCompUnique_Init                                   
0     003168be  _SEtherCatSubCompUnique_InitDBIndexToODInfo                    
0     0030a58c  _SPIRXINTA_ISR                                                 
0     0030a5ba  _SPITXINTA_ISR                                                 
0     003198cf  _Scan_AD1                                                      
0     003198d2  _Scan_AD2                                                      
0     003198d3  _Scan_BitIn                                                    
0     00318c9d  _Scan_IODeviceData                                             
0     00007050  _SciaRegs                                                      
0     00007750  _ScibRegs                                                      
0     00007770  _ScicRegs                                                      
0     00306724  _Send91_Fast                                                   
0     00306e79  _Send91_Slow                                                   
0     0030db5b  _SendARPData                                                   
0     00309030  _SendBWRFrameToPort                                            
0     003066c6  _SendBootData                                                  
0     00306bb3  _SendCurveData                                                 
0     00300700  _SendDatagram                                                  
0     00309c78  _SendDriftDatagram                                             
0     00302269  _SendMailboxData                                               
0     0030085a  _SendMailboxEnd                                                
0     003007d6  _SendMailboxStart                                              
0     0030dd2f  _SendNetData                                                   
0     00306d05  _SendRespCMDResult                                             
0     00306bb8  _SendRetransmitData                                            
0     00306ca2  _SendRetransmitDataLess                                        
0     0030de4f  _SendTECHData                                                  
0     0031653c  _SendTestBuffer                                                
0     003066b2  _SendTestData                                                  
0     0031a2a3  _ServiceDog                                                    
0     003198f2  _SetALLOutput                                                  
0     00317113  _SetAppSlaveCount                                              
0     00319580  _SetCalibrateADMaxValue                                        
0     0031953f  _SetCalibrateADMinValue                                        
0     003052c3  _SetDA_RemoteIO                                                
0     00317db4  _SetDBValueByIndex                                             
0     00300da5  _SetDCBandwidthDriftCompensation                               
0     00300e87  _SetDLDLControl                                                
0     00308fc9  _SetDriftCompensationBandwidth                                 
0     00300a15  _SetECATEventMask                                              
0     003172a9  _SetECSlaveClearErrorFlag                                      
0     00317107  _SetECSlaveNodeID                                              
0     00309b40  _SetLatch0Control                                              
0     0030521d  _SetOfflineOutput_RemoteIO                                     
0     0030527b  _SetOutput_RemoteIO                                            
0     003194d8  _SetPeripheralADMaxVoltage                                     
0     00319472  _SetPeripheralADMinVoltage                                     
0     003137ab  _SetReadAccessType                                             
0     00314dbe  _SetReadGeneralRWType                                          
0     003098d3  _SetSYNC0CycleTime                                             
0     00309985  _SetSYNC0StartTime                                             
0     00309a92  _SetSYNCControlUnit                                            
0     003170dc  _SetSlaveParamReaderNULL                                       
0     0030093d  _SetSlavesInit                                                 
0     00300e16  _SetSysTimeDifferFilterDepth                                   
0     0031379c  _SetWriteAccessType                                            
0     00314daf  _SetWriteGeneralRWType                                         
0     003198fb  _Set_BitOut                                                    
0     0031a160  _Set_CommChipError                                             
0     0031a16e  _Set_CommChipErrorDetail                                       
0     0031982a  _Set_DA                                                        
0     003197fa  _Set_Encoder                                                   
0     00318cf3  _Set_IODeviceData                                              
0     0031a116  _Set_MasterError                                               
0     00318d4a  _Set_Output                                                    
0     0031bc8e  _SpiDaOut                                                      
0     00007040  _SpiaRegs                                                      
0     00316c26  _StartDMACH1                                                   
0     00316ccd  _StartDMACH2                                                   
0     00316d74  _StartDMACH3                                                   
0     00316e1b  _StartDMACH4                                                   
0     00316ec2  _StartDMACH5                                                   
0     00316f69  _StartDMACH6                                                   
0     00306d5e  _StartTxTemperDataToMaster                                     
0     00007010  _SysCtrlRegs                                                   
0     0030a198  _TINT0_ISR                                                     
0     003074c9  _TempCommon_DistributeHeatCMD                                  
0     0030ab9c  _TemperAlg_Calculate                                           
0     0030ab7a  _TemperAlg_Create                                              
0     0030b72c  _TemperAlg_Output                                              
0     00314ebb  _TemperCardInfo_Init                                           
0     00314ec6  _TemperCard_Init                                               
0     00307e6a  _TemperCommon_CalCurrent                                       
0     0030725e  _TemperCommon_ChangeAbsolute_set                               
0     0030708b  _TemperCommon_ChangeHeatCmd                                    
0     00307030  _TemperCommon_ChangeMoldAdjCmd                                 
0     00306fe3  _TemperCommon_ChangePipeAdjCmd                                 
0     00307344  _TemperCommon_ChangePreserve                                   
0     00306fb8  _TemperCommon_ChangeRapidCompensationUse                       
0     00307192  _TemperCommon_ChangeSoftHeat                                   
0     0030740a  _TemperCommon_ChangeUse                                        
0     00306f68  _TemperCommon_Init                                             
0     00307fa9  _TemperCommon_ReConfigAllCalCycle                              
0     00307f7e  _TemperCommon_ReConfigCalCycle                                 
0     003075b1  _TemperCommon_RunCal                                           
0     00307dea  _TemperCommon_RunOutput                                        
0     00306fc6  _TemperCommon_SetPIDChange                                     
0     00306fd4  _TemperCommon_Set_MicroAdj                                     
0     0030b7d4  _Temper_Alg_Set_Adj                                            
0     0030b84f  _Temper_Alg_Set_MicroAdj                                       
0     003133c4  _Tired_ReadAccessController                                    
0     00314a0a  _Tired_ReadGeneralRWController                                 
0     003133bb  _Tired_WriteAccessController                                   
0     00314a01  _Tired_WriteGeneralRWController                                
0     0030a028  _USER10_ISR                                                    
0     0030a056  _USER11_ISR                                                    
0     0030a084  _USER12_ISR                                                    
0     00309e8a  _USER1_ISR                                                     
0     00309eb8  _USER2_ISR                                                     
0     00309ee6  _USER3_ISR                                                     
0     00309f14  _USER4_ISR                                                     
0     00309f42  _USER5_ISR                                                     
0     00309f70  _USER6_ISR                                                     
0     00309f9e  _USER7_ISR                                                     
0     00309fcc  _USER8_ISR                                                     
0     00309ffa  _USER9_ISR                                                     
0     00305261  _UpdateLinkState_RemoteIO                                      
0     0030f368  _UploadCANSDO_Easy                                             
0     0030a1c6  _WAKEINT_ISR                                                   
0     000080a1  _WORD_memcpy                                                   
0     0000807c  _WORD_memset                                                   
0     00315bca  _Watch_Init                                                    
0     00315c27  _Watch_Init_Free                                               
0     00315c78  _Watch_Parser_Can                                              
0     00315d8b  _Watch_ReadIndex                                               
0     00315c57  _Watch_Run                                                     
0     00315d43  _Watch_SetWatchType                                            
0     00315d53  _Watch_WriteIndex                                              
0     0031abc5  _WriteIO                                                       
0     0031b69a  _WriteQEPA                                                     
0     0031b6a2  _WriteQEPB                                                     
0     00313470  _WriteReadID_AccessController                                  
0     00314aca  _WriteReadID_GeneralRWController                               
0     0031b58e  _WriteString_EEPROM                                            
0     003134cc  _WriteValue_AccessController                                   
0     00314b98  _WriteValue_GeneralRWController                                
0     00313429  _WriteWriteID_AccessController                                 
0     00314a97  _WriteWriteID_GeneralRWController                              
0     00318c8d  _Write_DAProtected                                             
0     0030a10e  _XINT1_ISR                                                     
0     0030a13c  _XINT2_ISR                                                     
0     0030a9dc  _XINT3_ISR                                                     
0     0030aa0a  _XINT4_ISR                                                     
0     0030aa38  _XINT5_ISR                                                     
0     0030aa66  _XINT6_ISR                                                     
0     0030aa94  _XINT7_ISR                                                     
0     00007070  _XIntruptRegs                                                  
0     0000ca07  _XingtaiBaudrateConf                                           
0     00000b20  _XintfRegs                                                     
0     0000e400  __CIOBUF_                                                      
0     0031051c  __CheckError                                                   
0     0030e37a  __CloseNetDevice_ax88796b                                      
0     0031962f  __CloseSPI                                                     
0     0030fdf2  __Close_eCan                                                   
0     0031964b  __ConfigEEPROM                                                 
0     003196cc  __ConfigEtherCAT                                               
0     00319651  __ConfigExternalAD                                             
0     00310384  __DestroyCanGPIO                                               
0     0030e869  __Disable_EEPROM_ax88796b                                      
0     00319c09  __DoubleE_Read                                                 
0     00319c49  __DoubleE_Write                                                
0     00319678  __EEPROMWriteDisable                                           
0     00319677  __EEPROMWriteEnable                                            
0     0030e85e  __Enable_EEPROM_ax88796b                                       
0     0000a0be  __FC_Write_DAProtected                                         
0     0030d44c  __GetLinkStatus                                                
0     0030e800  __GetLinkStatus_ax88796b                                       
0     00008355  __IQ24div                                                      
0     0000839c  __IQ24rsmpy                                                    
0     0030dfdf  __InitNetDevice_ax88796b                                       
0     00310360  __IniteCanGPIO                                                 
0     0031039c  __IniteCanRegister                                             
0     0030d40d  __InstallNetDevice                                             
0     0030e1f9  __InstallNetDevice_ax88796b                                    
0     0030d458  __NetDeviceISR                                                 
0     0030df7c  __NetDeviceISR_ax88796b                                        
0     0030e2af  __OpenNetDevice_ax88796b                                       
0     00319608  __OpenSPI                                                      
0     00319bf2  __Open_DoubleE                                                 
0     0030fd75  __Open_eCan                                                    
0     0030dfc7  __RESET_AX88796B                                               
0     00319679  __ReadEEPROMBySPI                                              
0     00319742  __ReadET1100BySPI                                              
0     0031978b  __ReadET1100IntRegBySPI                                        
0     0030d42e  __ReadNetDevice                                                
0     0030e3b9  __ReadNetDevice_ax88796b                                       
0     0031a4e2  __Read_ADC_LTC1864                                             
0     003100bc  __Read_eCan                                                    
0     0030e8f2  __ReceiveCMD_EEPROM_ax88796b                                   
0     003102c1  __ResetBaudrate_eCan                                           
0     003105fe  __Reset_eCan                                                   
0     0030d452  __RestoreNetDevice                                             
0     0030e2a3  __RestoreNetDevice_ax88796b                                    
0     00319666  __SPITXEndWait                                                 
0     00000400  __STACK_END                                                    
abs   00000400  __STACK_SIZE                                                   
abs   00000180  __SYSMEM_SIZE                                                  
0     0031a534  __SelectCHL_ADC_LTC1864                                        
0     0030e874  __SendCMD_EEPROM_ax88796b                                      
0     003196b3  __SetDAValue                                                   
0     0031963c  __SetSPIBaudRate                                               
0     0030d45e  __SetSwitchPort                                                
0     003196aa  __WriteEEPROMBySPI                                             
0     00319704  __WriteET1100BySPI                                             
0     0030d437  __WriteNetDevice                                               
0     0030e633  __WriteNetDevice_ax88796b                                      
0     00310193  __Write_ISReCan                                                
0     00310121  __Write_eCan                                                   
0     0031a409  ___TI_cleanup                                                  
0     0000cbf8  ___TI_cleanup_ptr                                              
0     0031b2b8  ___TI_closefile                                                
0     0031af78  ___TI_doflush                                                  
0     0000cbfa  ___TI_dtors_ptr                                                
0     0000cbf6  ___TI_enable_exit_profile_output                               
0     0000cdc0  ___TI_ft_end                                                   
abs   ffffffff  ___TI_pprof_out_hndl                                           
0     0030c554  ___TI_printfi                                                  
abs   ffffffff  ___TI_prof_data_size                                           
abs   ffffffff  ___TI_prof_data_start                                          
0     0031b104  ___TI_rd_ok                                                    
0     0031ac2e  ___TI_readmsg                                                  
0     003113c9  ___TI_scanfi                                                   
0     0000ce80  ___TI_tmpnams                                                  
0     0031abd6  ___TI_writemsg                                                 
0     0031b0c9  ___TI_wrt_ok                                                   
abs   ffffffff  ___binit__                                                     
abs   ffffffff  ___c_args__                                                    
0     00322e1c  ___cinit__                                                     
abs   ffffffff  ___etext__                                                     
abs   ffffffff  ___pinit__                                                     
abs   ffffffff  ___text__                                                      
0     0031bb34  __args_main                                                    
0     00320d68  __ctypes_                                                      
0     0000db00  __device                                                       
0     0030fe0d  __eCan_Rx                                                      
0     0030ff4b  __eCan_Tx                                                      
0     0000ce00  __ftable                                                       
0     0000cf26  __lock                                                         
0     0030e9ba  __mdio_clear_ax88796b                                          
0     0030e9e1  __mdio_read_ax88796b                                           
0     0030e992  __mdio_sync_ax88796b                                           
0     0030ea71  __mdio_write_ax88796b                                          
0     0031bc6a  __nop                                                          
0     0031bc66  __register_lock                                                
0     0031bc62  __register_unlock                                              
0     00000000  __stack                                                        
0     0000dac0  __stream                                                       
0     0000dbe0  __sys_memory                                                   
0     0031abd5  __system_post_cinit                                            
0     0031bc9e  __system_pre_init                                              
0     0000cf28  __unlock                                                       
0     0031b93a  _abort                                                         
0     0030dca9  _accept                                                        
0     00318995  _assert                                                        
0     0031b885  _atoi                                                          
0     0000ca00  _bSend_InjState_Xingtai                                        
0     0031b425  _c_int00                                                       
0     0031944e  _calloc                                                        
0     0031944c  _chkheap                                                       
0     0030d762  _chksum                                                        
0     0031b852  _close                                                         
0     003228f2  _cnst_ADController                                             
0     003224c8  _cnst_DealEtherCatFunc                                         
0     0030d6f8  _comparebuff                                                   
0     00322e1a  _const_version_kernel                                          
0     0031b9d9  _copy_in                                                       
0     0031bbf0  _copysign                                                      
0     0031bbf0  _copysignf                                                     
0     0031b9b4  _copysignl                                                     
0     0031b5c2  _cpu_timer0_isr                                                
0     0031898b  _debug_assert                                                  
0     0000cf2a  _errno                                                         
0     0030fcdf  _ethercat_forward_frame                                        
0     0030fab3  _ethercat_s_net_buffer_init                                    
0     0030fae7  _ethercat_s_net_buffer_init_fifo                               
0     0030fb43  _ethercat_s_net_buffer_read                                    
0     0030fbec  _ethercat_s_net_buffer_write                                   
0     0030fcac  _ethernet_forward_frame                                        
0     0030df5d  _ethernet_s_ip4_set_value                                      
0     0030df32  _ethernet_s_mac_set_value                                      
0     00318582  _ethernet_switch_s_port_add                                    
0     00318553  _ethernet_switch_s_port_init                                   
0     0031861e  _ethernet_switch_s_port_recved_frame                           
0     003185b0  _ethernet_switch_s_port_set_forward_frame                      
0     003185e0  _ethernet_switch_s_port_set_link                               
0     0031b93c  _exit                                                          
0     0031b2fc  _fclose                                                        
0     0031afa7  _fflush                                                        
0     0031b521  _finddevice                                                    
0     0031a444  _fopen                                                         
0     0031b4ce  _fputc                                                         
0     0031a8a2  _fputs                                                         
0     00319291  _free                                                          
0     0031942e  _free_memory                                                   
0     0031a426  _freopen                                                       
0     0031b317  _frexpl                                                        
0     0031b7a9  _fseek                                                         
0     0000c343  _g_55_nNetSession                                              
0     0000b3c1  _g_ActDataType                                                 
0     0000b3f6  _g_BootState                                                   
0     00321978  _g_CMDMap                                                      
0     0000cbda  _g_CPULoad                                                     
0     0000a0b6  _g_CPULoadWhile                                                
0     0000d100  _g_CalibrateADController                                       
0     0000c800  _g_Card_EtherCATMaster                                         
0     0020dc00  _g_ECController                                                
0     00008640  _g_ECSwitchBlock                                               
0     00008608  _g_ECSwitchBlockUsed                                           
0     00008940  _g_ECSwitchBuffer                                              
0     00008605  _g_ECSwitchBufferUsed                                          
0     0000ca11  _g_HT_91_Driver_Inovance                                       
0     0000c818  _g_HT_AxisCard_EleInj                                          
0     0000c840  _g_HT_AxisCard_Oil                                             
0     0000c900  _g_HT_AxisCard_PP                                              
0     0000c880  _g_HT_AxisCard_Plus                                            
0     0000ca20  _g_HT_MB_Driver_Inovance                                       
0     0000d0c0  _g_IOCPULoad                                                   
0     0000b3c2  _g_MasterComState                                              
0     0000d5de  _g_NetCPULoad                                                  
0     0000b3f2  _g_NetStopState                                                
0     0000b3c7  _g_OperateMode                                                 
0     0000b3c3  _g_OperateStep1                                                
0     0000b3cf  _g_OperateStep1last                                            
0     00321b94  _g_PC_commmap                                                  
0     00322cb4  _g_PC_ctrlcmdmap                                               
0     0000c380  _g_PC_dwLastError                                              
0     0000c341  _g_PC_nNetSession                                              
0     0000c342  _g_PC_wLastMoldsetCNT                                          
0     0000c340  _g_PC_wNetFrameErrorCNT                                        
0     0000a8f0  _g_Preadc                                                      
0     0000b3c4  _g_RetransmitType                                              
0     0000db90  _g_RxCANESError                                                
0     0000b3c0  _g_SendDoneCheck                                               
0     0000dba8  _g_TxCANESError                                                
0     0000ca18  _g_XT_91_Driver                                                
0     0000ca40  _g_XT_MB_Driver                                                
0     0000ca05  _g_XT_SendEnable                                               
0     0000da08  _g_a                                                           
0     0000b84a  _g_aCANSDO_EasyController                                      
0     0000d5d4  _g_acSmac                                                      
0     0000d540  _g_asCommPwmtrCard                                             
0     00009bc0  _g_asCommRemoteIO                                              
0     0000c6c0  _g_asCommTemperCard                                            
0     0000d740  _g_asWatch                                                     
0     0000da0c  _g_awEepromMAC                                                 
0     0000da09  _g_awIOBase                                                    
0     0000b3d3  _g_bAutoMode                                                   
0     0000b3c6  _g_bDealDataImmediately                                        
0     0000b3d1  _g_bHMIDataParsed                                              
0     0000953c  _g_bitinx                                                      
0     0000953a  _g_bitoutx                                                     
0     0000d804  _g_byMBEjetState                                               
0     0000d802  _g_byMBOpenmoldState                                           
0     00321bc0  _g_commmap                                                     
0     0000d180  _g_deviceconfig                                                
0     0000d0c8  _g_devicedata                                                  
0     0000db84  _g_dwBOResetCount                                              
0     0000b3e4  _g_dwMotionDA91                                                
0     0000d5c2  _g_dwRxNetDatagramCount                                        
0     0000c9e8  _g_dwServiceTime                                               
0     0000cbd4  _g_dwSystemUpTick                                              
0     0000b3e6  _g_dwTemperCardCount                                           
0     0000861e  _g_dwTestRxPDOCNT                                              
0     0000a0b0  _g_dwTickMainISR                                               
0     0000a0b4  _g_dwTickWhile                                                 
0     0000d5c8  _g_dwTxNetDatagramCount                                        
0     0000d5c0  _g_lCheckSessionStateTimer                                     
0     0000b3e2  _g_lHmiTransmitData                                            
0     0000b3e0  _g_lHmiTruanmitEchoData                                        
0     0000b3d4  _g_lManualKey_ClrErrCount                                      
0     0000b3ec  _g_lRecvRetransmitData                                         
0     0000b3ee  _g_lSendRetransmitData                                         
0     0000cbd8  _g_lSystemDnTick                                               
0     00322d7d  _g_logo                                                        
0     0000b3c8  _g_nDsp54NetSession                                            
0     0000a0c6  _g_nHMISession                                                 
0     0000cbd6  _g_pFuncCritical                                               
0     0000cf20  _g_paramnet                                                    
0     0000af00  _g_sCommComp                                                   
0     00203000  _g_sDB                                                         
0     0000c9f6  _g_sLed_Alarm                                                  
0     0000d702  _g_sOldWatch                                                   
0     0000b884  _g_version_temperlib                                           
0     0000da03  _g_wAbt                                                        
0     00008602  _g_wByteSizeSDO                                                
0     0000da05  _g_wCnt                                                        
0     0000da06  _g_wCol                                                        
0     0000b3ce  _g_wCommXPLC_backup                                            
0     0000a6c0  _g_wCounter                                                    
0     0000b3d0  _g_wCycle5528J6                                                
0     0000aefd  _g_wEcatRxDataError                                            
0     0000a4c0  _g_wElements                                                   
0     00009547  _g_wHTJ6CardType                                               
0     0000b3d2  _g_wHydraulicSpdSetpoint                                       
0     00008601  _g_wIndex                                                      
0     0000d801  _g_wMBEjetPosition                                             
0     0000d800  _g_wMBMoldPosition                                             
0     0000d803  _g_wMBOpenendPosition                                          
0     0000b3cd  _g_wManualKey_ClrErrFlag                                       
0     00008607  _g_wMasterErrorScan                                            
0     0000b3c5  _g_wMasterReady                                                
0     0000a0cb  _g_wNoElements                                                 
0     0000da04  _g_wOvw                                                        
0     0000da07  _g_wOwc                                                        
0     00009545  _g_wPackerCount                                                
0     0000a0c7  _g_wRecord                                                     
0     00009541  _g_wRemoteIOUploadSDO_Abort_CNT                                
0     0000da00  _g_wRst                                                        
0     00008606  _g_wRunECMasterFlag                                            
0     0000da02  _g_wRx                                                         
0     0000a0c1  _g_wSendTest                                                   
0     00008600  _g_wSubIndex                                                   
0     0000a0cc  _g_wTelegramCount                                              
0     0000c5c0  _g_wTemperCardUploadSDO_Abort_CNT                              
0     0000cf23  _g_wTemper_alg_MinOnTime                                       
0     0000b848  _g_wTestCANCOBID_0                                             
0     0000a0ca  _g_wTestCounter                                                
0     0000c345  _g_wTestRespMsgValueCNT                                        
0     0000aefa  _g_wTest_APRD                                                  
0     0000aefc  _g_wTest_APRW                                                  
0     0000aef9  _g_wTest_APWR                                                  
0     0000aef2  _g_wTest_ARMW                                                  
0     0000aef8  _g_wTest_BRD                                                   
0     0000aeff  _g_wTest_BRW                                                   
0     0000aef7  _g_wTest_BWR                                                   
0     0000aefb  _g_wTest_FPRD                                                  
0     0000aef5  _g_wTest_FPRW                                                  
0     0000aef6  _g_wTest_FPWR                                                  
0     0000aefe  _g_wTest_FRMW                                                  
0     0000aef1  _g_wTest_LRD                                                   
0     0000aef4  _g_wTest_LRW                                                   
0     0000aef3  _g_wTest_LWR                                                   
0     0000aef0  _g_wTest_NONE                                                  
0     0000da01  _g_wTx                                                         
0     00008603  _g_wUploadSDOFlag                                              
0     0031bca0  _gc_asAttribInfo                                               
0     00322d5f  _gc_asDataType                                                 
0     00321060  _gc_asGroup                                                    
0     00322bbb  _gc_asWatchIndex                                               
0     0032290a  _gc_sCommComp                                                  
0     00322dfe  _gc_sOldWatchIndex                                             
0     0031b53c  _getdevice                                                     
abs   00000600  _heap_size                                                     
0     0000de00  _heap_start                                                    
0     0030d71b  _ipv4_ip_match                                                 
0     0030d74f  _ipv4_port_match                                               
0     0031b371  _ldexp                                                         
0     0031b371  _ldexpf                                                        
0     0031a952  _ldexpl                                                        
0     0031bb97  _lseek                                                         
0     0031b8b6  _ltoa                                                          
0     00318767  _main                                                          
0     003192fa  _malloc                                                        
0     00303b02  _map_callback_HTJ6_PP                                          
0     00302e93  _map_callback_slave                                            
0     0031940c  _max_free                                                      
0     0031bc20  _memccpy                                                       
0     0031bc02  _memchr                                                        
0     0031bbc7  _memcmp                                                        
0     0000810f  _memcpy                                                        
0     0000cdbc  _memory__heap                                                  
0     0000cdbe  _memory__mutex                                                 
0     003175c4  _memory__s_manager_falloc                                      
0     00317633  _memory__s_manager_find                                        
0     00317670  _memory__s_manager_free                                        
0     0031756b  _memory__s_manager_malloc                                      
0     003176d0  _memory__s_manager_remain                                      
0     00319adc  _memory_free                                                   
0     00317493  _memory_init                                                   
0     00319abd  _memory_malloc                                                 
0     00319aae  _memory_manager_init                                           
0     0031750d  _memory_next                                                   
0     0031753d  _memory_size                                                   
0     000080da  _memset                                                        
0     003192d5  _minit                                                         
0     0031afeb  _open                                                          
0     0000c338  _parmbuf                                                       
0     0031b824  _printf                                                        
0     0031b4ce  _putc                                                          
0     0031b51c  _putchar                                                       
0     0031a93f  _puts                                                          
0     00313cc1  _rbtree_s_node_init                                            
0     00313c26  _rbtree_s_root_add_node                                        
0     00313caa  _rbtree_s_root_del_node                                        
0     00313be4  _rbtree_s_root_find_node                                       
0     00313b84  _rbtree_s_root_init                                            
0     00313bb4  _rbtree_s_root_set_compare                                     
0     00319358  _realloc                                                       
0     0031bc9b  _remove                                                        
0     0030ab4c  _rsvd_ISR                                                      
0     0031b371  _scalbn                                                        
0     0031b371  _scalbnf                                                       
0     0031a952  _scalbnl                                                       
0     0030dce3  _send                                                          
0     0031acf6  _setvbuf                                                       
0     0031b3cb  _snprintf                                                      
0     0031b06c  _sscanf                                                        
0     0031bc2d  _strchr                                                        
0     0031bc4f  _strcmp                                                        
0     0031bc92  _strcpy                                                        
0     0031bc85  _strlen                                                        
0     00319b42  _strlen_void                                                   
0     0031bbaf  _strncmp                                                       
0     0031bac1  _strncpy                                                       
0     00319b79  _strncpy_void                                                  
0     0031bc39  _strrchr                                                       
0     00318e9a  _strtod                                                        
0     00318e9a  _strtof                                                        
0     0031a648  _strtol                                                        
0     0031899b  _strtold                                                       
0     00319920  _strtoll                                                       
0     0031a7f1  _strtoul                                                       
0     00319e4d  _strtoull                                                      
0     00319d9a  _tftp_send_ack                                                 
0     00319d1f  _tftp_send_data                                                
0     00319dce  _tftp_send_error                                               
0     00319e34  _tftp_send_error_default                                       
0     0000cbf0  _tftp_server__map                                              
0     003080ae  _tftp_server__map_free                                         
0     00307fde  _tftp_server_create                                            
0     00307fd3  _tftp_server_init                                              
0     00308106  _tftp_server_map                                               
0     003080c1  _tftp_server_map_clear                                         
0     00308012  _tftp_server_parse                                             
0     00308951  _tftp_server_s__parse_ack                                      
0     003088cb  _tftp_server_s__parse_data                                     
0     00308720  _tftp_server_s__parse_read_req                                 
0     003087f2  _tftp_server_s__parse_write_req                                
0     003081dc  _tftp_server_t__server_parse_options                           
0     0030830a  _tftp_server_t__server_run_unlock                              
0     00308664  _tftp_server_t__void2options                                   
0     00308de1  _tftp_server_t_interface_check_finish                          
0     00308d8e  _tftp_server_t_interface_get_data_len                          
0     00308db6  _tftp_server_t_interface_get_free                              
0     00308d64  _tftp_server_t_interface_get_private                           
0     00308e09  _tftp_server_t_interface_read                                  
0     00308c31  _tftp_server_t_interface_set_buffer                            
0     00308c74  _tftp_server_t_interface_set_error                             
0     00308cbc  _tftp_server_t_interface_set_finish                            
0     00308d38  _tftp_server_t_interface_set_private                           
0     00308ce5  _tftp_server_t_interface_set_read                              
0     00308e42  _tftp_server_t_interface_write                                 
0     003080cb  _tftp_server_unmap                                             
0     0032fd00  _u_BurnSystem                                                  
0     0000b540  _u_HMIFifo                                                     
0     0000b888  _u_HeatCMDTimer                                                
0     0000f7c0  _u_PC_CurveBuffer                                              
0     0000c3c0  _u_PC_RespList                                                 
0     0000f680  _u_PC_TempBuffer                                               
0     0000c34c  _u_PC_dwCurveTimeAxis                                          
0     0000c34e  _u_PC_dwCurveTimeAxis_tick                                     
0     0000c350  _u_PC_dwRespCurveRecCounter                                    
0     0000c347  _u_PC_wRespActCounter                                          
0     0000c34b  _u_PC_wRespAlarmCounter                                        
0     0000c344  _u_PC_wRespCurveSetNum                                         
0     0000c349  _u_PC_wRespMoldsetRecCounter                                   
0     0000c348  _u_PC_wRespMoldsetStateCounter                                 
0     0000c346  _u_PC_wRespReadRefCounter                                      
0     0000c34a  _u_PC_wRespWriteRecCounter                                     
0     0000a380  _u_RespList                                                    
0     0000d342  _u_TcbConfig                                                   
0     0000b440  _u_TempParseBuffer                                             
0     0000b680  _u_TempTxBuffer                                                
0     0000b89a  _u_TemperCommon                                                
0     0000b8c0  _u_TemperCommonInteral                                         
0     00322ddb  _u_Temper_Alg_Config                                           
0     00322dde  _u_Temper_Alg_Config_FastMold                                  
0     0000a100  _u_TestBuffer                                                  
0     0000ba40  _u_aAd2DegreeE                                                 
0     0000ba00  _u_aAd2DegreeE2                                                
0     0000b900  _u_aAd2DegreeJ                                                 
0     0000b940  _u_aAd2DegreeJ2                                                
0     0000b980  _u_aAd2DegreeK                                                 
0     0000b9c0  _u_aAd2DegreeK2                                                
0     0000c5a4  _u_aEncoder                                                    
0     0000d5ce  _u_aSwitchPort                                                 
0     0000d3c0  _u_aTcbTimerintList                                            
0     0000d400  _u_aTcbUnTimerintList                                          
0     0000d380  _u_aTcbWhileloopList                                           
0     0000ba80  _u_aTemperAlg                                                  
0     0000d900  _u_aTemperCardKiBackup                                         
0     0000d980  _u_aTemperCardKpBackup                                         
0     00208000  _u_aTemperInternal                                             
0     0000cbe3  _u_adcltc1864                                                  
0     0000b88e  _u_apTemperTypeTbl                                             
0     0000b894  _u_apTemperTypeTbl2                                            
0     000096c0  _u_asADMap                                                     
0     000099c0  _u_asDAMap                                                     
0     000095c0  _u_asInputMap                                                  
0     00009640  _u_asOutputMap                                                 
0     00009580  _u_asPosiMap                                                   
0     0000d4c0  _u_asPwmtrCardInfo                                             
0     00009840  _u_asRemoteIOCardInfo                                          
0     0000c600  _u_asTemperCardInfo                                            
0     0000ee40  _u_awEthRxBufTemp                                              
0     0000e600  _u_awEthTxBufTemp                                              
0     0000c802  _u_bECATNoechoFlag                                             
0     0000a0ac  _u_bExecFlag                                                   
0     0000cf40  _u_bTestFlag                                                   
0     0000c59a  _u_dac                                                         
0     0000b3dc  _u_dwCommReadyCount                                            
0     0000b3da  _u_dwEjecatorFwd_StartTime                                     
0     0000b3d8  _u_dwEjectorBwd_StartTime                                      
0     00008620  _u_dwInitCheckCNT                                              
0     0000b3ea  _u_dwInject_StartTime                                          
0     0000cf46  _u_dwReadEnter                                                 
0     0000c9ea  _u_dwRunTime                                                   
0     0000a0b2  _u_dwStackScan                                                 
0     0000b3e8  _u_dwSuckBack_StartTime                                        
0     0000b88a  _u_dwTemperTick                                                
0     0000cf44  _u_dwWriteEnter                                                
0     0000cf42  _u_dwWriteValue                                                
0     0000b3de  _u_fCommFunc                                                   
0     0000b3d6  _u_fRullerRange                                                
0     0000da40  _u_hether                                                      
0     0000c9e6  _u_iLed_Error                                                  
0     0000c9e4  _u_iLed_Event                                                  
0     0000c9e7  _u_iLed_HMIOnline                                              
0     0000c9e5  _u_iLed_MasterOnline                                           
0     00009538  _u_initparam                                                   
0     0000c59e  _u_io                                                          
0     0000b3f0  _u_lRecvInterval                                               
0     0000c806  _u_nMT_HUB_8A_Position                                         
0     0000c804  _u_nMT_HUB_8A_SlaveIdx                                         
0     0000d600  _u_parameth                                                    
0     0000d340  _u_pdwSysDnTimer_MS                                            
0     0000da0f  _u_qheader                                                     
0     0000b400  _u_sAutoRespList_Fast                                          
0     0000b3fa  _u_sAutoRespList_Slow                                          
0     0000c9ec  _u_sLed_CpuHeart                                               
0     0000954d  _u_wADCount                                                    
0     00009553  _u_wCANRulerCount                                              
0     0000954a  _u_wDACount                                                    
0     00009543  _u_wDriverInovanceCount                                        
0     00009548  _u_wDriverXingtaiCount                                         
0     00009540  _u_wECATLinkMask                                               
0     0000c801  _u_wECATSlaveOPLost                                            
0     00009542  _u_wExternOtherCount                                           
0     00008604  _u_wFirstUpdateReady                                           
0     00009552  _u_wGermanjetCount                                             
0     00009546  _u_wHTRobotCount                                               
0     0000cf24  _u_wHeatCmd                                                    
0     0000954e  _u_wInputCount                                                 
0     00009544  _u_wJ6xCount                                                   
0     00009551  _u_wMT_HUB_8ACount                                             
0     0000c808  _u_wMT_HUB_8A_Error                                            
0     0000c810  _u_wMT_HUB_8A_ErrorFlag                                        
0     0000c803  _u_wMT_HUB_8A_SDOReadIndex                                     
0     0000954c  _u_wOutputCount                                                
0     0000954f  _u_wPickerCount                                                
0     0000954b  _u_wPosiCount                                                  
0     00009555  _u_wRemoteIOCount                                              
0     0000a0cd  _u_wRespActCounter                                             
0     0000a0c2  _u_wRespAlarmCounter                                           
0     0000a0c0  _u_wRespCurveRecCounter                                        
0     0000a0c4  _u_wRespMoldsetRecCounter                                      
0     0000a0c5  _u_wRespMoldsetStateCounter                                    
0     0000a0ce  _u_wRespReadRefCounter                                         
0     0000a0c3  _u_wRespWriteRecCounter                                        
0     00009549  _u_wRexrothCount                                               
0     0000d700  _u_wWatch_index                                                
0     00009550  _u_wtmIoT101Count                                              
0     00009558  _u_wtmIoT102Count                                              
0     00009556  _u_wtmIoT105Count                                              
0     00009557  _u_wtmIoT201Count                                              
0     00009554  _u_wtmIoT202Count                                              
0     00322d82  _uc_NodeIDCheck_CAN1Tab                                        
0     00322cf0  _uc_NodeIDCheck_CAN2Tab                                        
0     0032263d  _uc_assPulse                                                   
0     0031bb4d  _unlink                                                        
0     00319af6  _void2str                                                      
0     0031b05c  _vsscanf                                                       
0     0000a0c8  _wCycleTime                                                    
0     0000b3ca  _wParseBufferLength                                            
0     0000ca01  _wSend_Flow_Xingtai                                            
0     0000ca04  _wSend_Press_Xingtai                                           
0     0000a0c9  _wTestType                                                     
0     0031bc74  _wcslen                                                        
0     0031bb66  _write                                                         
abs   ffffffff  binit                                                          
0     00322e1c  cinit                                                          
0     0032fffe  code_start                                                     
abs   ffffffff  etext                                                          
abs   ffffffff  pinit                                                          


GLOBAL SYMBOLS: SORTED BY Symbol Address 

page  address   name                                                           
----  -------   ----                                                           
0     00000000  __stack                                                        
0     00000400  __STACK_END                                                    
0     00000880  _DevEmuRegs                                                    
0     00000a80  _FlashRegs                                                     
0     00000ae0  _CsmRegs                                                       
0     00000b00  _AdcMirror                                                     
0     00000b20  _XintfRegs                                                     
0     00000c00  _CpuTimer0Regs                                                 
0     00000c08  _CpuTimer1Regs                                                 
0     00000c10  _CpuTimer2Regs                                                 
0     00000ce0  _PieCtrlRegs                                                   
0     00000d00  _PieVectTable                                                  
0     00001000  _DmaRegs                                                       
0     00005000  _McbspaRegs                                                    
0     00005040  _McbspbRegs                                                    
0     00006000  _ECanbRegs                                                     
0     00006040  _ECanbLAMRegs                                                  
0     00006080  _ECanbMOTSRegs                                                 
0     000060c0  _ECanbMOTORegs                                                 
0     00006100  _ECanbMboxes                                                   
0     00006200  _ECanaRegs                                                     
0     00006240  _ECanaLAMRegs                                                  
0     00006280  _ECanaMOTSRegs                                                 
0     000062c0  _ECanaMOTORegs                                                 
0     00006300  _ECanaMboxes                                                   
0     00006800  _EPwm1Regs                                                     
0     00006840  _EPwm2Regs                                                     
0     00006880  _EPwm3Regs                                                     
0     000068c0  _EPwm4Regs                                                     
0     00006900  _EPwm5Regs                                                     
0     00006940  _EPwm6Regs                                                     
0     00006a00  _ECap1Regs                                                     
0     00006a20  _ECap2Regs                                                     
0     00006a40  _ECap3Regs                                                     
0     00006a60  _ECap4Regs                                                     
0     00006a80  _ECap5Regs                                                     
0     00006aa0  _ECap6Regs                                                     
0     00006b00  _EQep1Regs                                                     
0     00006b40  _EQep2Regs                                                     
0     00006f80  _GpioCtrlRegs                                                  
0     00006fc0  _GpioDataRegs                                                  
0     00006fe0  _GpioIntRegs                                                   
0     00007010  _SysCtrlRegs                                                   
0     00007040  _SpiaRegs                                                      
0     00007050  _SciaRegs                                                      
0     00007070  _XIntruptRegs                                                  
0     00007100  _AdcRegs                                                       
0     00007750  _ScibRegs                                                      
0     00007770  _ScicRegs                                                      
0     00007900  _I2caRegs                                                      
0     00008000  _RamFuncs_runstart                                             
0     00008018  _DWORD_memset                                                  
0     00008046  _DWORD_memcpy                                                  
0     0000807c  _WORD_memset                                                   
0     000080a1  _WORD_memcpy                                                   
0     000080da  _memset                                                        
0     0000810f  _memcpy                                                        
0     00008141  _BYTE_memset                                                   
0     00008195  _BYTE_memcpy                                                   
0     0000823e  _BYTE_get                                                      
0     00008272  _BYTE_set                                                      
0     000082bd  _MainISR                                                       
0     00008336  _InitFlash                                                     
0     00008351  _DSP28x_usDelay                                                
0     00008355  _RamFuncs_runstart1                                            
0     00008355  __IQ24div                                                      
0     0000839c  __IQ24rsmpy                                                    
0     00008600  _g_wSubIndex                                                   
0     00008601  _g_wIndex                                                      
0     00008602  _g_wByteSizeSDO                                                
0     00008603  _g_wUploadSDOFlag                                              
0     00008604  _u_wFirstUpdateReady                                           
0     00008605  _g_ECSwitchBufferUsed                                          
0     00008606  _g_wRunECMasterFlag                                            
0     00008607  _g_wMasterErrorScan                                            
0     00008608  _g_ECSwitchBlockUsed                                           
0     0000861e  _g_dwTestRxPDOCNT                                              
0     00008620  _u_dwInitCheckCNT                                              
0     00008640  _g_ECSwitchBlock                                               
0     00008940  _g_ECSwitchBuffer                                              
0     00009538  _u_initparam                                                   
0     0000953a  _g_bitoutx                                                     
0     0000953c  _g_bitinx                                                      
0     00009540  _u_wECATLinkMask                                               
0     00009541  _g_wRemoteIOUploadSDO_Abort_CNT                                
0     00009542  _u_wExternOtherCount                                           
0     00009543  _u_wDriverInovanceCount                                        
0     00009544  _u_wJ6xCount                                                   
0     00009545  _g_wPackerCount                                                
0     00009546  _u_wHTRobotCount                                               
0     00009547  _g_wHTJ6CardType                                               
0     00009548  _u_wDriverXingtaiCount                                         
0     00009549  _u_wRexrothCount                                               
0     0000954a  _u_wDACount                                                    
0     0000954b  _u_wPosiCount                                                  
0     0000954c  _u_wOutputCount                                                
0     0000954d  _u_wADCount                                                    
0     0000954e  _u_wInputCount                                                 
0     0000954f  _u_wPickerCount                                                
0     00009550  _u_wtmIoT101Count                                              
0     00009551  _u_wMT_HUB_8ACount                                             
0     00009552  _u_wGermanjetCount                                             
0     00009553  _u_wCANRulerCount                                              
0     00009554  _u_wtmIoT202Count                                              
0     00009555  _u_wRemoteIOCount                                              
0     00009556  _u_wtmIoT105Count                                              
0     00009557  _u_wtmIoT201Count                                              
0     00009558  _u_wtmIoT102Count                                              
0     00009580  _u_asPosiMap                                                   
0     000095c0  _u_asInputMap                                                  
0     00009640  _u_asOutputMap                                                 
0     000096c0  _u_asADMap                                                     
0     00009840  _u_asRemoteIOCardInfo                                          
0     000099c0  _u_asDAMap                                                     
0     00009bc0  _g_asCommRemoteIO                                              
0     0000a0ac  _u_bExecFlag                                                   
0     0000a0b0  _g_dwTickMainISR                                               
0     0000a0b2  _u_dwStackScan                                                 
0     0000a0b4  _g_dwTickWhile                                                 
0     0000a0b6  _g_CPULoadWhile                                                
0     0000a0be  __FC_Write_DAProtected                                         
0     0000a0c0  _u_wRespCurveRecCounter                                        
0     0000a0c1  _g_wSendTest                                                   
0     0000a0c2  _u_wRespAlarmCounter                                           
0     0000a0c3  _u_wRespWriteRecCounter                                        
0     0000a0c4  _u_wRespMoldsetRecCounter                                      
0     0000a0c5  _u_wRespMoldsetStateCounter                                    
0     0000a0c6  _g_nHMISession                                                 
0     0000a0c7  _g_wRecord                                                     
0     0000a0c8  _wCycleTime                                                    
0     0000a0c9  _wTestType                                                     
0     0000a0ca  _g_wTestCounter                                                
0     0000a0cb  _g_wNoElements                                                 
0     0000a0cc  _g_wTelegramCount                                              
0     0000a0cd  _u_wRespActCounter                                             
0     0000a0ce  _u_wRespReadRefCounter                                         
0     0000a0cf  _MsgState                                                      
0     0000a0d4  _MoldsetState                                                  
0     0000a100  _u_TestBuffer                                                  
0     0000a380  _u_RespList                                                    
0     0000a4c0  _g_wElements                                                   
0     0000a6c0  _g_wCounter                                                    
0     0000a8f0  _g_Preadc                                                      
0     0000aef0  _g_wTest_NONE                                                  
0     0000aef1  _g_wTest_LRD                                                   
0     0000aef2  _g_wTest_ARMW                                                  
0     0000aef3  _g_wTest_LWR                                                   
0     0000aef4  _g_wTest_LRW                                                   
0     0000aef5  _g_wTest_FPRW                                                  
0     0000aef6  _g_wTest_FPWR                                                  
0     0000aef7  _g_wTest_BWR                                                   
0     0000aef8  _g_wTest_BRD                                                   
0     0000aef9  _g_wTest_APWR                                                  
0     0000aefa  _g_wTest_APRD                                                  
0     0000aefb  _g_wTest_FPRD                                                  
0     0000aefc  _g_wTest_APRW                                                  
0     0000aefd  _g_wEcatRxDataError                                            
0     0000aefe  _g_wTest_FRMW                                                  
0     0000aeff  _g_wTest_BRW                                                   
0     0000af00  _g_sCommComp                                                   
0     0000b3a8  _CpuTimer1                                                     
0     0000b3b0  _CpuTimer2                                                     
0     0000b3b8  _CpuTimer0                                                     
0     0000b3c0  _g_SendDoneCheck                                               
0     0000b3c1  _g_ActDataType                                                 
0     0000b3c2  _g_MasterComState                                              
0     0000b3c3  _g_OperateStep1                                                
0     0000b3c4  _g_RetransmitType                                              
0     0000b3c5  _g_wMasterReady                                                
0     0000b3c6  _g_bDealDataImmediately                                        
0     0000b3c7  _g_OperateMode                                                 
0     0000b3c8  _g_nDsp54NetSession                                            
0     0000b3ca  _wParseBufferLength                                            
0     0000b3cd  _g_wManualKey_ClrErrFlag                                       
0     0000b3ce  _g_wCommXPLC_backup                                            
0     0000b3cf  _g_OperateStep1last                                            
0     0000b3d0  _g_wCycle5528J6                                                
0     0000b3d1  _g_bHMIDataParsed                                              
0     0000b3d2  _g_wHydraulicSpdSetpoint                                       
0     0000b3d3  _g_bAutoMode                                                   
0     0000b3d4  _g_lManualKey_ClrErrCount                                      
0     0000b3d6  _u_fRullerRange                                                
0     0000b3d8  _u_dwEjectorBwd_StartTime                                      
0     0000b3da  _u_dwEjecatorFwd_StartTime                                     
0     0000b3dc  _u_dwCommReadyCount                                            
0     0000b3de  _u_fCommFunc                                                   
0     0000b3e0  _g_lHmiTruanmitEchoData                                        
0     0000b3e2  _g_lHmiTransmitData                                            
0     0000b3e4  _g_dwMotionDA91                                                
0     0000b3e6  _g_dwTemperCardCount                                           
0     0000b3e8  _u_dwSuckBack_StartTime                                        
0     0000b3ea  _u_dwInject_StartTime                                          
0     0000b3ec  _g_lRecvRetransmitData                                         
0     0000b3ee  _g_lSendRetransmitData                                         
0     0000b3f0  _u_lRecvInterval                                               
0     0000b3f2  _g_NetStopState                                                
0     0000b3f6  _g_BootState                                                   
0     0000b3fa  _u_sAutoRespList_Slow                                          
0     0000b400  _u_sAutoRespList_Fast                                          
0     0000b406  _MOTIONCONFIG_TABLE                                            
0     0000b440  _u_TempParseBuffer                                             
0     0000b540  _u_HMIFifo                                                     
0     0000b680  _u_TempTxBuffer                                                
0     0000b848  _g_wTestCANCOBID_0                                             
0     0000b84a  _g_aCANSDO_EasyController                                      
0     0000b884  _g_version_temperlib                                           
0     0000b888  _u_HeatCMDTimer                                                
0     0000b88a  _u_dwTemperTick                                                
0     0000b88e  _u_apTemperTypeTbl                                             
0     0000b894  _u_apTemperTypeTbl2                                            
0     0000b89a  _u_TemperCommon                                                
0     0000b8c0  _u_TemperCommonInteral                                         
0     0000b900  _u_aAd2DegreeJ                                                 
0     0000b940  _u_aAd2DegreeJ2                                                
0     0000b980  _u_aAd2DegreeK                                                 
0     0000b9c0  _u_aAd2DegreeK2                                                
0     0000ba00  _u_aAd2DegreeE2                                                
0     0000ba40  _u_aAd2DegreeE                                                 
0     0000ba80  _u_aTemperAlg                                                  
0     0000c0c0  _CommComp_turntable__aConfig_tab                               
0     0000c100  _CommComp_turntable_aCard_hydraulic                            
0     0000c1c0  _CommComp_turntable_aCard_HT                                   
0     0000c280  _CommComp_turntable_aCard_electric                             
0     0000c338  _parmbuf                                                       
0     0000c340  _g_PC_wNetFrameErrorCNT                                        
0     0000c341  _g_PC_nNetSession                                              
0     0000c342  _g_PC_wLastMoldsetCNT                                          
0     0000c343  _g_55_nNetSession                                              
0     0000c344  _u_PC_wRespCurveSetNum                                         
0     0000c345  _g_wTestRespMsgValueCNT                                        
0     0000c346  _u_PC_wRespReadRefCounter                                      
0     0000c347  _u_PC_wRespActCounter                                          
0     0000c348  _u_PC_wRespMoldsetStateCounter                                 
0     0000c349  _u_PC_wRespMoldsetRecCounter                                   
0     0000c34a  _u_PC_wRespWriteRecCounter                                     
0     0000c34b  _u_PC_wRespAlarmCounter                                        
0     0000c34c  _u_PC_dwCurveTimeAxis                                          
0     0000c34e  _u_PC_dwCurveTimeAxis_tick                                     
0     0000c350  _u_PC_dwRespCurveRecCounter                                    
0     0000c352  _PC_LinkState                                                  
0     0000c356  _PC_MoldsetState                                               
0     0000c35c  _PC_MsgState                                                   
0     0000c380  _g_PC_dwLastError                                              
0     0000c3c0  _u_PC_RespList                                                 
0     0000c59a  _u_dac                                                         
0     0000c59e  _u_io                                                          
0     0000c5a4  _u_aEncoder                                                    
0     0000c5c0  _g_wTemperCardUploadSDO_Abort_CNT                              
0     0000c600  _u_asTemperCardInfo                                            
0     0000c6c0  _g_asCommTemperCard                                            
0     0000c800  _g_Card_EtherCATMaster                                         
0     0000c801  _u_wECATSlaveOPLost                                            
0     0000c802  _u_bECATNoechoFlag                                             
0     0000c803  _u_wMT_HUB_8A_SDOReadIndex                                     
0     0000c804  _u_nMT_HUB_8A_SlaveIdx                                         
0     0000c806  _u_nMT_HUB_8A_Position                                         
0     0000c808  _u_wMT_HUB_8A_Error                                            
0     0000c810  _u_wMT_HUB_8A_ErrorFlag                                        
0     0000c818  _g_HT_AxisCard_EleInj                                          
0     0000c840  _g_HT_AxisCard_Oil                                             
0     0000c880  _g_HT_AxisCard_Plus                                            
0     0000c900  _g_HT_AxisCard_PP                                              
0     0000c9e4  _u_iLed_Event                                                  
0     0000c9e5  _u_iLed_MasterOnline                                           
0     0000c9e6  _u_iLed_Error                                                  
0     0000c9e7  _u_iLed_HMIOnline                                              
0     0000c9e8  _g_dwServiceTime                                               
0     0000c9ea  _u_dwRunTime                                                   
0     0000c9ec  _u_sLed_CpuHeart                                               
0     0000c9f6  _g_sLed_Alarm                                                  
0     0000ca00  _bSend_InjState_Xingtai                                        
0     0000ca01  _wSend_Flow_Xingtai                                            
0     0000ca02  _Press_Xingtai                                                 
0     0000ca03  _Flow_Xingtai                                                  
0     0000ca04  _wSend_Press_Xingtai                                           
0     0000ca05  _g_XT_SendEnable                                               
0     0000ca07  _XingtaiBaudrateConf                                           
0     0000ca0a  _InovanceBaudrateConf                                          
0     0000ca0d  _CommComp_driver__aConfig_tab                                  
0     0000ca11  _g_HT_91_Driver_Inovance                                       
0     0000ca18  _g_XT_91_Driver                                                
0     0000ca20  _g_HT_MB_Driver_Inovance                                       
0     0000ca40  _g_XT_MB_Driver                                                
0     0000ca80  _CommComp_driver_aCard_inovance                                
0     0000cb40  _CommComp_driver_aCard_xingtai                                 
0     0000cbd4  _g_dwSystemUpTick                                              
0     0000cbd6  _g_pFuncCritical                                               
0     0000cbd8  _g_lSystemDnTick                                               
0     0000cbda  _g_CPULoad                                                     
0     0000cbe3  _u_adcltc1864                                                  
0     0000cbf0  _tftp_server__map                                              
0     0000cbf6  ___TI_enable_exit_profile_output                               
0     0000cbf8  ___TI_cleanup_ptr                                              
0     0000cbfa  ___TI_dtors_ptr                                                
0     0000cbfc  _Error_App__checkTimer                                         
0     0000cbfe  _Error_App__task                                               
0     0000cc00  _GeneralRW__aController                                        
0     0000cdbc  _memory__heap                                                  
0     0000cdbe  _memory__mutex                                                 
0     0000cdc0  ___TI_ft_end                                                   
0     0000ce00  __ftable                                                       
0     0000ce80  ___TI_tmpnams                                                  
0     0000cf20  _g_paramnet                                                    
0     0000cf23  _g_wTemper_alg_MinOnTime                                       
0     0000cf24  _u_wHeatCmd                                                    
0     0000cf26  __lock                                                         
0     0000cf28  __unlock                                                       
0     0000cf2a  _errno                                                         
0     0000cf40  _u_bTestFlag                                                   
0     0000cf42  _u_dwWriteValue                                                
0     0000cf44  _u_dwWriteEnter                                                
0     0000cf46  _u_dwReadEnter                                                 
0     0000cf80  _Rexroth__aController                                          
0     0000d0c0  _g_IOCPULoad                                                   
0     0000d0c8  _g_devicedata                                                  
0     0000d100  _g_CalibrateADController                                       
0     0000d180  _g_deviceconfig                                                
0     0000d200  _Access__aController                                           
0     0000d340  _u_pdwSysDnTimer_MS                                            
0     0000d342  _u_TcbConfig                                                   
0     0000d380  _u_aTcbWhileloopList                                           
0     0000d3c0  _u_aTcbTimerintList                                            
0     0000d400  _u_aTcbUnTimerintList                                          
0     0000d4c0  _u_asPwmtrCardInfo                                             
0     0000d540  _g_asCommPwmtrCard                                             
0     0000d5c0  _g_lCheckSessionStateTimer                                     
0     0000d5c2  _g_dwRxNetDatagramCount                                        
0     0000d5c8  _g_dwTxNetDatagramCount                                        
0     0000d5ce  _u_aSwitchPort                                                 
0     0000d5d4  _g_acSmac                                                      
0     0000d5de  _g_NetCPULoad                                                  
0     0000d600  _u_parameth                                                    
0     0000d700  _u_wWatch_index                                                
0     0000d702  _g_sOldWatch                                                   
0     0000d740  _g_asWatch                                                     
0     0000d800  _g_wMBMoldPosition                                             
0     0000d801  _g_wMBEjetPosition                                             
0     0000d802  _g_byMBOpenmoldState                                           
0     0000d803  _g_wMBOpenendPosition                                          
0     0000d804  _g_byMBEjetState                                               
0     0000d805  _HTRobotBaudrateConf                                           
0     0000d808  _CommComp_Robot__aConfig_tab                                   
0     0000d840  _CommComp_Robot_aCard_HT                                       
0     0000d900  _u_aTemperCardKiBackup                                         
0     0000d980  _u_aTemperCardKpBackup                                         
0     0000da00  _g_wRst                                                        
0     0000da01  _g_wTx                                                         
0     0000da02  _g_wRx                                                         
0     0000da03  _g_wAbt                                                        
0     0000da04  _g_wOvw                                                        
0     0000da05  _g_wCnt                                                        
0     0000da06  _g_wCol                                                        
0     0000da07  _g_wOwc                                                        
0     0000da08  _g_a                                                           
0     0000da09  _g_awIOBase                                                    
0     0000da0c  _g_awEepromMAC                                                 
0     0000da0f  _u_qheader                                                     
0     0000da40  _u_hether                                                      
0     0000dac0  __stream                                                       
0     0000db00  __device                                                       
0     0000db84  _g_dwBOResetCount                                              
0     0000db90  _g_RxCANESError                                                
0     0000dba8  _g_TxCANESError                                                
0     0000dbc0  _HCan                                                          
0     0000dbe0  __sys_memory                                                   
0     0000de00  _heap_start                                                    
0     0000e400  __CIOBUF_                                                      
0     0000e600  _u_awEthTxBufTemp                                              
0     0000ee40  _u_awEthRxBufTemp                                              
0     0000f680  _u_PC_TempBuffer                                               
0     0000f7c0  _u_PC_CurveBuffer                                              
0     00203000  _g_sDB                                                         
0     00208000  _u_aTemperInternal                                             
0     0020dc00  _g_ECController                                                
0     00300000  _RamFuncs_loadstart                                            
0     00300355  _RamFuncs_loadend                                              
0     00300355  _RamFuncs_loadstart1                                           
0     003003b1  _RamFuncs_loadend1                                             
0     003003f3  _ECMaster_Init                                                 
0     0030054b  _ECMaster_Reset                                                
0     00300555  _ECMaster_Deal                                                 
0     0030060b  _ECMaster_DealSwitch                                           
0     0030067b  _InitSendECFrameHeader                                         
0     00300694  _InitSendDatagram                                              
0     003006bd  _FlushDatagram                                                 
0     00300700  _SendDatagram                                                  
0     003007d6  _SendMailboxStart                                              
0     0030085a  _SendMailboxEnd                                                
0     003008a2  _GetSlaves                                                     
0     0030093d  _SetSlavesInit                                                 
0     003009b4  _InitEEPROMConfig                                              
0     00300a15  _SetECATEventMask                                              
0     00300a81  _ClearRxErrorCount                                             
0     00300aee  _ClearCyclicUnitControl                                        
0     00300b4f  _ClearPosAddress                                               
0     00300bb0  _ClearFMMU                                                     
0     00300c13  _ClearSyncManage                                               
0     00300c82  _ClearSystemTime                                               
0     00300ce3  _ClearSYNC0StartTime                                           
0     00300d44  _DisableSYNCControl                                            
0     00300da5  _SetDCBandwidthDriftCompensation                               
0     00300e16  _SetSysTimeDifferFilterDepth                                   
0     00300e87  _SetDLDLControl                                                
0     00300efa  _GetDLStatus                                                   
0     00300f94  _DisableWatchdogTime                                           
0     00300ff5  _DisableWatchdogTimeProcess                                    
0     0030105c  _EnableWatchdogTimeProcess                                     
0     003010d0  _ReadEepromSetAddre                                            
0     0030114a  _ReadEepromSetContr                                            
0     003011ca  _ReadEepromReadState                                           
0     00301249  _ReadEepromData                                                
0     003012c4  _ConfigSlavesAddress                                           
0     0030131b  _ChangeSlavesState                                             
0     003013e9  _GetSlavesState                                                
0     0030155e  _GetSmConfig                                                   
0     00301596  _ConfigSyncManager                                             
0     003016d4  _ConfigFMMU                                                    
0     0030181b  _ConfigPDOMap                                                  
0     00301efd  _CheckConfigOk                                                 
0     00301f63  _ReadRecvPDOMap                                                
0     00302269  _SendMailboxData                                               
0     003022ba  _ECMaster_Run                                                  
0     00302d0d  _CheckECConfigTimeout                                          
0     00302d22  _ECConfigFunc                                                  
0     00302d30  _ChangeECConfigState                                           
0     00302e2c  _CreatTaskEtherCATMaster_App                                   
0     00302e93  _map_callback_slave                                            
0     00302f6d  _ECATMasterInitSlaveError_App                                  
0     00302f77  _ECATMasterDoClearError_App                                    
0     00302f78  _ECATMasterAfterClearError_App                                 
0     00302f79  _ECATMasterBeforeRun_App                                       
0     00303098  _Reset_ECSlave_HTJ6_Oil                                        
0     00303428  _Reset_ECSlave_HTJ6_EleInj                                     
0     003037b2  _Reset_ECSlave_HTJ6_Plus                                       
0     00303b02  _map_callback_HTJ6_PP                                          
0     00303b76  _Reset_ECSlave_HTJ6_PP                                         
0     0030400a  _Reset_MT_HUB_8A                                               
0     003041f3  _Reset_HT_EH1708X                                              
0     00304204  _ECATMasterRx_BTL6_V11E                                        
0     0030422e  _Reset_BTL6_V11E                                               
0     003042a9  _ECATMasterRx_BTL6_V107                                        
0     003042d3  _Reset_BTL6_V107                                               
0     0030434e  _Reset_PARKER_COMPAX3_FLUID                                    
0     00304502  _ECATMasterRx_TR_LINEAR                                        
0     0030452c  _Reset_TR_LINEAR                                               
0     0030460b  _DealECSlaveHandle_New                                         
0     003046d6  _RefreshMT_HUB_Error                                           
0     003046e2  _Reset_Rexroth_HMC                                             
0     00304a20  _Init_RemoteIO                                                 
0     00304ac3  _InitMap_RemoteIO                                              
0     00304b50  _Map_RemoteIO                                                  
0     0030521d  _SetOfflineOutput_RemoteIO                                     
0     00305261  _UpdateLinkState_RemoteIO                                      
0     0030527b  _SetOutput_RemoteIO                                            
0     003052c3  _SetDA_RemoteIO                                                
0     003052ff  _GetInput_RemoteIO                                             
0     00305340  _GetAD_RemoteIO                                                
0     0030536f  _GetPositionCount_RemoteIO                                     
0     0030538f  _CommRemoteIOCardInfo_Init                                     
0     0030539a  _CommRemoteIO_Init                                             
0     0030602f  _CreateTaskNet_master                                          
0     0030605d  _DestoryTaskNet_master                                         
0     0030605e  _RunTaskNet_master                                             
0     003060b7  _ParseNetData                                                  
0     00306106  _GetMasterPowerOn                                              
0     0030625c  _GetMasterSoftBoot                                             
0     00306267  _GetSlowActual                                                 
0     00306270  _GetOperateState                                               
0     003065cf  _GetRetransmitData                                             
0     003065f3  _MainloopParseHMIData                                          
0     0030660e  _GetRetransmitDataLess                                         
0     00306616  _GetEcho_Boot                                                  
0     00306620  _GetEcho_AD_DA                                                 
0     00306626  _GetEcho_RetransmitData                                        
0     0030662c  _GetEcho_RetransmitDataLess                                    
0     00306634  _GetEcho_SlowActual                                            
0     0030663a  _GetConfiguration                                              
0     00306649  _GetMachineParameters1                                         
0     00306658  _GetMachineParameters2                                         
0     00306667  _GetMoldSet1                                                   
0     00306676  _GetMoldSet2                                                   
0     00306685  _GetMachineParameters_B                                        
0     00306694  _GetMoldSet_B1                                                 
0     003066a3  _GetMoldSet_B2                                                 
0     003066b2  _SendTestData                                                  
0     003066c6  _SendBootData                                                  
0     00306724  _Send91_Fast                                                   
0     00306bb3  _SendCurveData                                                 
0     00306bb8  _SendRetransmitData                                            
0     00306c4b  _RunTaskHMIFifoRead                                            
0     00306ca2  _SendRetransmitDataLess                                        
0     00306d05  _SendRespCMDResult                                             
0     00306d37  _MakeCRCValue                                                  
0     00306d5e  _StartTxTemperDataToMaster                                     
0     00306d80  _ParseOperateMotion                                            
0     00306d89  _Command_ManualKey                                             
0     00306e79  _Send91_Slow                                                   
0     00306ec7  _GetCommReadyState                                             
0     00306f41  _ClearDBErr                                                    
0     00306f68  _TemperCommon_Init                                             
0     00306fb8  _TemperCommon_ChangeRapidCompensationUse                       
0     00306fc6  _TemperCommon_SetPIDChange                                     
0     00306fd4  _TemperCommon_Set_MicroAdj                                     
0     00306fe3  _TemperCommon_ChangePipeAdjCmd                                 
0     00307030  _TemperCommon_ChangeMoldAdjCmd                                 
0     0030708b  _TemperCommon_ChangeHeatCmd                                    
0     00307192  _TemperCommon_ChangeSoftHeat                                   
0     0030725e  _TemperCommon_ChangeAbsolute_set                               
0     00307344  _TemperCommon_ChangePreserve                                   
0     0030740a  _TemperCommon_ChangeUse                                        
0     003074c9  _TempCommon_DistributeHeatCMD                                  
0     003075b1  _TemperCommon_RunCal                                           
0     00307dea  _TemperCommon_RunOutput                                        
0     00307e6a  _TemperCommon_CalCurrent                                       
0     00307f7e  _TemperCommon_ReConfigCalCycle                                 
0     00307fa9  _TemperCommon_ReConfigAllCalCycle                              
0     00307fd3  _tftp_server_init                                              
0     00307fde  _tftp_server_create                                            
0     00308012  _tftp_server_parse                                             
0     003080ae  _tftp_server__map_free                                         
0     003080c1  _tftp_server_map_clear                                         
0     003080cb  _tftp_server_unmap                                             
0     00308106  _tftp_server_map                                               
0     003081dc  _tftp_server_t__server_parse_options                           
0     0030830a  _tftp_server_t__server_run_unlock                              
0     00308664  _tftp_server_t__void2options                                   
0     00308720  _tftp_server_s__parse_read_req                                 
0     003087f2  _tftp_server_s__parse_write_req                                
0     003088cb  _tftp_server_s__parse_data                                     
0     00308951  _tftp_server_s__parse_ack                                      
0     00308c31  _tftp_server_t_interface_set_buffer                            
0     00308c74  _tftp_server_t_interface_set_error                             
0     00308cbc  _tftp_server_t_interface_set_finish                            
0     00308ce5  _tftp_server_t_interface_set_read                              
0     00308d38  _tftp_server_t_interface_set_private                           
0     00308d64  _tftp_server_t_interface_get_private                           
0     00308d8e  _tftp_server_t_interface_get_data_len                          
0     00308db6  _tftp_server_t_interface_get_free                              
0     00308de1  _tftp_server_t_interface_check_finish                          
0     00308e09  _tftp_server_t_interface_read                                  
0     00308e42  _tftp_server_t_interface_write                                 
0     00308e97  _GetClockParam                                                 
0     00308f30  _GetDataLinkStatus                                             
0     00308fc9  _SetDriftCompensationBandwidth                                 
0     00309030  _SendBWRFrameToPort                                            
0     00309093  _ReadRefSysTimeToOtherSlaves                                   
0     003090f6  _ReadRefSysTimeSlaves                                          
0     0030913d  _ReadBeforeSyncTime                                            
0     00309289  _GetSlavePortTime                                              
0     0030937d  _DCPropagationDelayCalc                                        
0     0030949a  _GetProcessUnitTime                                            
0     00309581  _DCOffsetCompensation                                          
0     00309645  _DCDriftCompensation                                           
0     003096b5  _ReadSysTimeDifference                                         
0     00309756  _GetSYNCPulseLength                                            
0     003097f3  _GetSystemTime0                                                
0     003098d3  _SetSYNC0CycleTime                                             
0     00309985  _SetSYNC0StartTime                                             
0     00309a92  _SetSYNCControlUnit                                            
0     00309b40  _SetLatch0Control                                              
0     00309bde  _GetSystemTime1                                                
0     00309c78  _SendDriftDatagram                                             
0     00309ccb  _ClearDriftDatagram                                            
0     00309d1e  _INT13_ISR                                                     
0     00309d52  _INT14_ISR                                                     
0     00309d86  _DATALOG_ISR                                                   
0     00309dba  _RTOSINT_ISR                                                   
0     00309dee  _EMUINT_ISR                                                    
0     00309e22  _NMI_ISR                                                       
0     00309e56  _ILLEGAL_ISR                                                   
0     00309e8a  _USER1_ISR                                                     
0     00309eb8  _USER2_ISR                                                     
0     00309ee6  _USER3_ISR                                                     
0     00309f14  _USER4_ISR                                                     
0     00309f42  _USER5_ISR                                                     
0     00309f70  _USER6_ISR                                                     
0     00309f9e  _USER7_ISR                                                     
0     00309fcc  _USER8_ISR                                                     
0     00309ffa  _USER9_ISR                                                     
0     0030a028  _USER10_ISR                                                    
0     0030a056  _USER11_ISR                                                    
0     0030a084  _USER12_ISR                                                    
0     0030a0b2  _SEQ1INT_ISR                                                   
0     0030a0e0  _SEQ2INT_ISR                                                   
0     0030a10e  _XINT1_ISR                                                     
0     0030a13c  _XINT2_ISR                                                     
0     0030a16a  _ADCINT_ISR                                                    
0     0030a198  _TINT0_ISR                                                     
0     0030a1c6  _WAKEINT_ISR                                                   
0     0030a1f4  _EPWM1_TZINT_ISR                                               
0     0030a222  _EPWM2_TZINT_ISR                                               
0     0030a250  _EPWM3_TZINT_ISR                                               
0     0030a27e  _EPWM4_TZINT_ISR                                               
0     0030a2ac  _EPWM5_TZINT_ISR                                               
0     0030a2da  _EPWM6_TZINT_ISR                                               
0     0030a308  _EPWM1_INT_ISR                                                 
0     0030a336  _EPWM2_INT_ISR                                                 
0     0030a364  _EPWM3_INT_ISR                                                 
0     0030a392  _EPWM4_INT_ISR                                                 
0     0030a3c0  _EPWM5_INT_ISR                                                 
0     0030a3ee  _EPWM6_INT_ISR                                                 
0     0030a41c  _ECAP1_INT_ISR                                                 
0     0030a44a  _ECAP2_INT_ISR                                                 
0     0030a478  _ECAP3_INT_ISR                                                 
0     0030a4a6  _ECAP4_INT_ISR                                                 
0     0030a4d4  _ECAP5_INT_ISR                                                 
0     0030a502  _ECAP6_INT_ISR                                                 
0     0030a530  _EQEP1_INT_ISR                                                 
0     0030a55e  _EQEP2_INT_ISR                                                 
0     0030a58c  _SPIRXINTA_ISR                                                 
0     0030a5ba  _SPITXINTA_ISR                                                 
0     0030a5e8  _MRINTB_ISR                                                    
0     0030a616  _MXINTB_ISR                                                    
0     0030a644  _MRINTA_ISR                                                    
0     0030a672  _MXINTA_ISR                                                    
0     0030a6a0  _DINTCH1_ISR                                                   
0     0030a6ce  _DINTCH2_ISR                                                   
0     0030a6fc  _DINTCH3_ISR                                                   
0     0030a72a  _DINTCH4_ISR                                                   
0     0030a758  _DINTCH5_ISR                                                   
0     0030a786  _DINTCH6_ISR                                                   
0     0030a7b4  _I2CINT1A_ISR                                                  
0     0030a7e2  _I2CINT2A_ISR                                                  
0     0030a810  _SCIRXINTC_ISR                                                 
0     0030a83e  _SCITXINTC_ISR                                                 
0     0030a86c  _SCIRXINTA_ISR                                                 
0     0030a89a  _SCITXINTA_ISR                                                 
0     0030a8c8  _SCIRXINTB_ISR                                                 
0     0030a8f6  _SCITXINTB_ISR                                                 
0     0030a924  _ECAN0INTA_ISR                                                 
0     0030a952  _ECAN1INTA_ISR                                                 
0     0030a980  _ECAN0INTB_ISR                                                 
0     0030a9ae  _ECAN1INTB_ISR                                                 
0     0030a9dc  _XINT3_ISR                                                     
0     0030aa0a  _XINT4_ISR                                                     
0     0030aa38  _XINT5_ISR                                                     
0     0030aa66  _XINT6_ISR                                                     
0     0030aa94  _XINT7_ISR                                                     
0     0030aac2  _LVF_ISR                                                       
0     0030aaf0  _LUF_ISR                                                       
0     0030ab1e  _PIE_RESERVED                                                  
0     0030ab4c  _rsvd_ISR                                                      
0     0030ab7a  _TemperAlg_Create                                              
0     0030ab9c  _TemperAlg_Calculate                                           
0     0030b72c  _TemperAlg_Output                                              
0     0030b7d4  _Temper_Alg_Set_Adj                                            
0     0030b84f  _Temper_Alg_Set_MicroAdj                                       
0     0030c554  ___TI_printfi                                                  
0     0030c7c0  _CommComp_turntable_init                                       
0     0030c807  _CommComp_turntable_clean                                      
0     0030c84e  _CommComp_turntable_add_hydraulic                              
0     0030c8a5  _CommComp_turntable_add_HT                                     
0     0030c8fe  _CommComp_turntable_add_electric                               
0     0030c957  _CommComp_turntable_set_PF_channel                             
0     0030c989  _CommComp_turntable_get_awRsvd                                 
0     0030c9c2  _CommComp_turntable_get_error                                  
0     0030c9fb  _CommComp_turntable_get_act_position_1                         
0     0030ca4b  _CommComp_turntable_get_act_speed_1                            
0     0030ca9d  _CommComp_turntable_get_act_voltag                             
0     0030cac1  _CommComp_turntable__s_card_hydraulic_init                     
0     0030cb57  _CommComp_turntable__s_card_HT_init                            
0     0030cbf2  _CommComp_turntable__s_card_hydraulic_add                      
0     0030cc1f  _CommComp_turntable__s_card_HT_add                             
0     0030cc4c  _CommComp_turntable__s_card_hydraulic_comp_event_callback      
0     0030cc96  _CommComp_turntable__s_card_HT_comp_event_callback             
0     0030cce0  _CommComp_turntable__s_card_hydraulic_CANopen_SDO_config_finish
0     0030cd16  _CommComp_turntable__s_card_HT_CANopen_SDO_config_finish       
0     0030cd4c  _CommComp_turntable__s_card_hydraulic_CANopen_event_callback   
0     0030ce16  _CommComp_turntable__s_card_HT_CANopen_event_callback          
0     0030ceeb  _CommComp_turntable__s_card_hydraulic_CANopen_custom_operation 
0     0030cf8c  _CommComp_turntable__s_card_HT_CANopen_custom_operation        
0     0030cff1  _CommComp_turntable__s_card_electric_init                      
0     0030d0b1  _CommComp_turntable__s_card_electric_add                       
0     0030d0e9  _CommComp_turntable__s_card_electric_comp_event_callback       
0     0030d133  _CommComp_turntable__s_card_electric_CANopen_SDO_config_finish 
0     0030d197  _CommComp_turntable__s_card_electric_CANopen_event_callback    
0     0030d30a  _CommComp_turntable__s_card_electric_CANopen_custom_operation  
0     0030d40d  __InstallNetDevice                                             
0     0030d42e  __ReadNetDevice                                                
0     0030d437  __WriteNetDevice                                               
0     0030d44c  __GetLinkStatus                                                
0     0030d452  __RestoreNetDevice                                             
0     0030d458  __NetDeviceISR                                                 
0     0030d45e  __SetSwitchPort                                                
0     0030d46c  _OpenEthernet                                                  
0     0030d4a0  _CloseEthernet                                                 
0     0030d4a6  _ResetParamEth                                                 
0     0030d4b1  _OpenEthSession                                                
0     0030d585  _CloseEthSession                                               
0     0030d5a8  _ActivateEthSession                                            
0     0030d60c  _FindAllParamEthSession                                        
0     0030d692  _FindIPEthSession                                              
0     0030d6c4  _FindMACEthSession                                             
0     0030d6f8  _comparebuff                                                   
0     0030d71b  _ipv4_ip_match                                                 
0     0030d74f  _ipv4_port_match                                               
0     0030d762  _chksum                                                        
0     0030d797  _DealFrame                                                     
0     0030d7b6  _ReadNetData                                                   
0     0030d812  _DealData                                                      
0     0030d88e  _DealARP                                                       
0     0030d951  _DealIP                                                        
0     0030d974  _BindAddrToSession                                             
0     0030d9d3  _DealICMP                                                      
0     0030da93  _DealUDP                                                       
0     0030db13  _DealTECH                                                      
0     0030db5b  _SendARPData                                                   
0     0030dc2d  _ReqActivateEthSession                                         
0     0030dc51  _RoutineCheckSessionState                                      
0     0030dc90  _GetSessionchState                                             
0     0030dca9  _accept                                                        
0     0030dce3  _send                                                          
0     0030dd2f  _SendNetData                                                   
0     0030de4f  _SendTECHData                                                  
0     0030deab  _ClearBindAddrToSession                                        
0     0030dedb  _DisactivateEthSession                                         
0     0030df07  _FindMACEthSession_TECH                                        
0     0030df32  _ethernet_s_mac_set_value                                      
0     0030df5d  _ethernet_s_ip4_set_value                                      
0     0030df7c  __NetDeviceISR_ax88796b                                        
0     0030dfc7  __RESET_AX88796B                                               
0     0030dfdf  __InitNetDevice_ax88796b                                       
0     0030e1f9  __InstallNetDevice_ax88796b                                    
0     0030e2a3  __RestoreNetDevice_ax88796b                                    
0     0030e2af  __OpenNetDevice_ax88796b                                       
0     0030e37a  __CloseNetDevice_ax88796b                                      
0     0030e3b9  __ReadNetDevice_ax88796b                                       
0     0030e633  __WriteNetDevice_ax88796b                                      
0     0030e800  __GetLinkStatus_ax88796b                                       
0     0030e85e  __Enable_EEPROM_ax88796b                                       
0     0030e869  __Disable_EEPROM_ax88796b                                      
0     0030e874  __SendCMD_EEPROM_ax88796b                                      
0     0030e8f2  __ReceiveCMD_EEPROM_ax88796b                                   
0     0030e992  __mdio_sync_ax88796b                                           
0     0030e9ba  __mdio_clear_ax88796b                                          
0     0030e9e1  __mdio_read_ax88796b                                           
0     0030ea71  __mdio_write_ax88796b                                          
0     0030ecba  _Create_CommCANOpen                                            
0     0030ecd2  _Parse_CommCANOpen                                             
0     0030ecef  _Run_CommCANOpen                                               
0     0030ed1c  _CANOpenMaster_SendNMTModuleCtrl                               
0     0030ed55  _CANOpenMaster_SendSync                                        
0     0030ed6c  _CANOpenMaster_SendRPDO                                        
0     0030ed91  _CANOpenMaster_SendPDO                                         
0     0030edd6  _CANOpenMaster_SendSDO                                         
0     0030ee57  _CANOpenMaster_SendNodeGruading                                
0     0030ee93  _CANOpenMaster_CommTypeToChannel                               
0     0030eea3  _CANOpenMaster_ResetComm                                       
0     0030eeab  _SCANOpenSubCompUnique_Init                                    
0     0030eeb3  _SCANOpenSubCompUnique_InitDBIndexToODInfo                     
0     0030eec1  _SCANOpenCompUnique_Init                                       
0     0030eef0  _SCANOpenCompUnique_InitConfigInfo                             
0     0030eefe  _SCANOpenCompUnique_InitEventCallBack                          
0     0030ef0c  _SCANOpenCompUnique_SetNodeID                                  
0     0030ef24  _CANOpenCHBManager_Init                                        
0     0030ef3c  _CANOpenCHBManager_Reset                                       
0     0030ef4c  _CANOpenCHBManager_RecvedMsg                                   
0     0030ef5c  _CANOpenCHBManager_Check                                       
0     0030f368  _UploadCANSDO_Easy                                             
0     0030f3e8  _DownloadCANSDO_Easy                                           
0     0030f62c  _ECMaster_SetDnsName                                           
0     0030f63a  _ECSlave_EoE_DealMailbox                                       
0     0030f6a7  _ECSlave_SendEoE                                               
0     0030f752  _ECSlave_EoE_SendInit                                          
0     0030f850  _ECSlave_EoE_SendFragment                                      
0     0030f983  _ECSlave_EoE_SetIpParameter                                    
0     0030fab3  _ethercat_s_net_buffer_init                                    
0     0030fae7  _ethercat_s_net_buffer_init_fifo                               
0     0030fb43  _ethercat_s_net_buffer_read                                    
0     0030fbec  _ethercat_s_net_buffer_write                                   
0     0030fcac  _ethernet_forward_frame                                        
0     0030fcdf  _ethercat_forward_frame                                        
0     0030fd75  __Open_eCan                                                    
0     0030fdf2  __Close_eCan                                                   
0     0030fe0d  __eCan_Rx                                                      
0     0030ff4b  __eCan_Tx                                                      
0     003100bc  __Read_eCan                                                    
0     00310121  __Write_eCan                                                   
0     00310193  __Write_ISReCan                                                
0     003102c1  __ResetBaudrate_eCan                                           
0     00310360  __IniteCanGPIO                                                 
0     00310384  __DestroyCanGPIO                                               
0     0031039c  __IniteCanRegister                                             
0     0031051c  __CheckError                                                   
0     003105fe  __Reset_eCan                                                   
0     003106bb  _CreateTaskNet_PC                                              
0     003106fe  _DestoryTaskNet_PC                                             
0     003106ff  _RunTaskNet_PC                                                 
0     00310d09  _GetLinkState_PC                                               
0     00310d0d  _PostMsg_PC                                                    
0     003113c9  ___TI_scanfi                                                   
0     0031170f  _ECSlave_CoE_DealMailbox                                       
0     0031197d  _ECSlave_SendCoE                                               
0     00311b13  _ECSlave_CoE_SDOUploadRequest                                  
0     00311b8b  _ECSlave_CoE_SDOUploadSegmentRequest                           
0     00311bed  _ECSlave_CoE_SDODownloadExpeditedRequest                       
0     00311ca0  _ECSlave_CoE_SDODownloadNormalRequest                          
0     00311d68  _ECSlave_CoE_SDODownloadSegmentRequest                         
0     00311edf  _ECMaster_UploadSDO                                            
0     00311ef8  _ECMaster_DownloadSDO                                          
0     00311f11  _ECMaster_UploadSDONormal                                      
0     00311f26  _ECMaster_DownloadSDONormal                                    
0     00311fcd  _CommComp_driver_init                                          
0     00312003  _CommComp_driver_clean                                         
0     00312039  _CommComp_driver_add_inovance                                  
0     00312097  _CommComp_driver_add_xingtai                                   
0     003120f7  _CANOpenInovance_Null                                          
0     003120fc  _CANOpenXingtai_Null                                           
0     00312101  _CommComp_driver__s_card_inovance_init                         
0     003121b6  _CommComp_driver__s_card_xingtai_init                          
0     00312287  _CommComp_driver__s_card_inovance_add                          
0     003122e6  _CommComp_driver__s_card_xingtai_add                           
0     00312345  _CommComp_driver__s_card_inovance_comp_event_callback          
0     0031238a  _CommComp_driver__s_card_xingtai_comp_event_callback           
0     003123cf  _CommComp_driver__s_card_inovance_CANopen_event_callback       
0     00312460  _CommComp_driver__s_card_xingtai_CANopen_event_callback        
0     0031254a  _CommComp_Driver_Inovance_SendPDO                              
0     00312580  _CommComp_Driver_Xingtai_SendPDO                               
0     003125b6  _CommComp_Driver_Xingtai_SendControl                           
0     003125f4  _CommComp_Driver_Xingtai_SendPF                                
0     00312635  _CommComp_driver__s_card_inovance_CANopen_custom_operation     
0     003126b6  _CommComp_driver__s_card_xingtai_CANopen_custom_operation      
0     003128ea  _Init_Comm                                                     
0     00312907  _Create_Comm                                                   
0     0031291d  _Parse_Comm                                                    
0     00312932  _Run_SlowRun                                                   
0     00312b3e  _Run_FastRun                                                   
0     00312b5b  _Comm_SetWriteFlagByDBIndex                                    
0     00312bb3  _Comm_SetReadFlagByDBIndex                                     
0     00312c7e  _CommComp_SetRangeFlag                                         
0     00312cd2  _CommComp_ClrRangeFlag                                         
0     00312d26  _SCommSubComp_Init                                             
0     00312d79  _SCommSubComp_InitSyncInfo                                     
0     00312d95  _SCommSubComp_InitWriteInfo                                    
0     00312dc2  _SCommSubComp_InitReadInfo                                     
0     00312def  _SCommSubComp_SetSyncFlag                                      
0     00312df8  _SCommSubComp_SetReadFlag                                      
0     00312e01  _SCommSubComp_SetWriteFlag                                     
0     00312e0a  _SCommSubComp_ClrWriteFlag                                     
0     00312e13  _SCommSubComp_SetAllSyncDBFlag                                 
0     00312e1e  _SCommSubComp_SetAllReadDBFlag                                 
0     00312e29  _SCommSubComp_SetAllWriteDBFlag                                
0     00312e34  _SCommSubComp_ClrAllWriteDBFlag                                
0     00312e3f  _SCommComp_Init                                                
0     00312e77  _SCommComp_InitEventCallBack                                   
0     00312e85  _SCommComp_InitCustomFunc                                      
0     00312e93  _SCommComp_SetState                                            
0     00312ebb  _SCommComp_SetCommType                                         
0     00312ee3  _SCommComp_AddSubComp                                          
0     00312efc  _SCommComp_DelSubComp                                          
0     00312f47  _SCommComp_ClrSDOState                                         
0     00312f50  _SCommComp_SetAllSyncFlag                                      
0     00312f65  _SCommComp_SetAllReadFlag                                      
0     00312f7a  _SCommComp_SetAllWriteFlag                                     
0     00312f8f  _SCommComp_ClrAllWriteFlag                                     
0     00312ff6  _Create_Access                                                 
0     00313041  _Run_Access                                                    
0     003130e2  _DB_Access_Write_Type                                          
0     0031310d  _DB_Access_Read_Type                                           
0     00313138  _DB_Access_Write_State                                         
0     0031316f  _DB_Access_Read_State                                          
0     003131a6  _DB_Access_Write_ID                                            
0     003131e8  _DB_Access_Read_ID                                             
0     0031322a  _DB_Access_Write_Value                                         
0     0031326c  _DB_Access_Read_Value                                          
0     003132aa  _Init_WriteAccessController                                    
0     00313306  _Init_ReadAccessController                                     
0     00313366  _Run_AccessController                                          
0     003133bb  _Tired_WriteAccessController                                   
0     003133c4  _Tired_ReadAccessController                                    
0     003133cd  _GetTired_WriteAccessController                                
0     003133d7  _GetTired_ReadAccessController                                 
0     003133e1  _GetChannel_WriteAccessController                              
0     003133eb  _GetChannel_ReadAccessController                               
0     003133fa  _ReadWriteState_AccessController                               
0     0031340f  _ReadReadState_AccessController                                
0     00313429  _WriteWriteID_AccessController                                 
0     00313470  _WriteReadID_AccessController                                  
0     003134cc  _WriteValue_AccessController                                   
0     0031350f  _ReadValue_AccessController                                    
0     0031353d  _Access_Write                                                  
0     003135c1  _Access_Read                                                   
0     00313613  _Access_SearchWriteItem                                        
0     00313664  _Access_SearchReadItem                                         
0     003136b5  _Access_ReadAccess                                             
0     00313726  _Access_WriteAccess                                            
0     0031379c  _SetWriteAccessType                                            
0     003137ab  _SetReadAccessType                                             
0     00313b84  _rbtree_s_root_init                                            
0     00313bb4  _rbtree_s_root_set_compare                                     
0     00313be4  _rbtree_s_root_find_node                                       
0     00313c26  _rbtree_s_root_add_node                                        
0     00313caa  _rbtree_s_root_del_node                                        
0     00313cc1  _rbtree_s_node_init                                            
0     00313ff7  _CAN1NodeID_Check                                              
0     0031403c  _CAN2NodeID_Check                                              
0     003140c3  _DB_SetNodeID_TemperCard                                       
0     003140e0  _DB_TemperCard_tSensorType                                     
0     003140fa  _DB_TemperCard_HeatMinTime                                     
0     00314114  _DB_TemperCard_HeatCmd                                         
0     00314130  _DB_TemperCard_SoftHeat                                        
0     00314141  _DB_TemperCard_HeatType                                        
0     0031415e  _DB_TemperCard_Seg_HeatWay                                     
0     00314197  _DB_TemperCard_Seg_OutputCycle                                 
0     003141f6  _DB_TemperCard_Seg_Enhance_ratio                               
0     00314228  _DB_TemperCard_Seg_Set_PID_KP                                  
0     00314255  _DB_TemperCard_Seg_Set_PID_KI                                  
0     00314284  _DB_TemperCard_Seg_tSensorType                                 
0     003142f0  _DB_TemperCard_Seg_Use                                         
0     00314314  _DB_TemperCard_UpdateSoftSN                                    
0     00314365  _DB_TemperCard_Seg_DeviceType                                  
0     00314399  _DB_SetNodeID_PwmtrCard                                        
0     003143b6  _DB_TemperCard_Seg_Absolute_Set                                
0     003143cc  _DB_SetTemper_Preserve                                         
0     003143dd  _DB_SetTemper_FastMoldOpt                                      
0     00314405  _DB_RapidCompensation                                          
0     00314429  _DB_PID_Change                                                 
0     00314456  _DB_PipeTemper_DeepLearn                                       
0     0031446e  _DB_MoldTemper_DeepLearn                                       
0     00314486  _DB_SetTempHeatChkDegree                                       
0     003144a0  _DB_TemperCard_Seg_HeatChkDegree                               
0     003144c9  _DB_SetTemperPipeAdjCmd                                        
0     003144de  _DB_SetTemperMoldAdjCmd                                        
0     003144f3  _DB_PwOnPrted                                                  
0     0031451a  _DB_WatchType                                                  
0     00314545  _DB_WatchWriteValue                                            
0     0031457a  _DB_WatchReadAddr                                              
0     003145b4  _DB_WatchReadValue                                             
0     003145e8  _DB_OldWatchType                                               
0     003145fc  _DB_OldWatchWriteValue                                         
0     00314619  _DB_OldWatchReadAddr                                           
0     0031463b  _DB_OldWatchReadValue                                          
0     00314657  _DB_AxisAccess_WriteData                                       
0     00314665  _DB_AxisAccess_WriteId                                         
0     00314674  _DB_AxisAccess_WriteValue                                      
0     00314683  _DB_AxisAccess_ReadData                                        
0     00314706  _Create_GeneralRW                                              
0     0031474f  _Run_GeneralRW                                                 
0     003147f0  _DB_GeneralRW_Write_Type                                       
0     00314819  _DB_GeneralRW_Read_Type                                        
0     00314842  _DB_GeneralRW_Write_State                                      
0     00314879  _DB_GeneralRW_Read_State                                       
0     003148b0  _DB_GeneralRW_WriteValue_Enable                                
0     003148db  _DB_GeneralRW_ReadValue_Enable                                 
0     00314906  _Init_WriteGeneralRWController                                 
0     00314957  _Init_ReadGeneralRWController                                  
0     003149ac  _Run_GeneralRWController                                       
0     00314a01  _Tired_WriteGeneralRWController                                
0     00314a0a  _Tired_ReadGeneralRWController                                 
0     00314a13  _GetTired_WriteGeneralRWController                             
0     00314a1d  _GetTired_ReadGeneralRWController                              
0     00314a27  _GetChannel_WriteGeneralRWController                           
0     00314a31  _GetChannel_ReadGeneralRWController                            
0     00314a40  _ReadWriteState_GeneralRWController                            
0     00314a4f  _ReadReadState_GeneralRWController                             
0     00314a61  _DB_GeneralRW_Write_Index                                      
0     00314a7c  _DB_GeneralRW_Read_Index                                       
0     00314a97  _WriteWriteID_GeneralRWController                              
0     00314aca  _WriteReadID_GeneralRWController                               
0     00314b00  _CheckPackge_WriteGeneralRWController                          
0     00314b4b  _CheckPackge_ReadGeneralRWController                           
0     00314b98  _WriteValue_GeneralRWController                                
0     00314bac  _ReadValue_GeneralRWController                                 
0     00314bc3  _GeneralRW_Write                                               
0     00314c43  _GeneralRW_Read                                                
0     00314ca4  _GeneralRW_SearchWriteItem                                     
0     00314cb9  _GeneralRW_SearchReadItem                                      
0     00314cce  _GeneralRW_ReadGeneralRW                                       
0     00314d3c  _GeneralRW_WriteGeneralRW                                      
0     00314daf  _SetWriteGeneralRWType                                         
0     00314dbe  _SetReadGeneralRWType                                          
0     00314e66  _Init_TemperCard                                               
0     00314ea2  _GetSegNum_TemperCard                                          
0     00314ebb  _TemperCardInfo_Init                                           
0     00314ec6  _TemperCard_Init                                               
0     00314efd  _OilCompensate_Init                                            
0     00314f1a  _OilCompensate_SetOilSegNumber                                 
0     00314f44  _OilCompensate_CalcLinear                                      
0     00314fdb  _OilCompensate_Run                                             
0     00315525  _ECSlave_FoE_DealMailbox                                       
0     003156db  _ECSlave_SendFoE                                               
0     00315861  _ECSlave_FoE_Init                                              
0     003158a0  _ECSlave_FoE_ParseOptions                                      
0     00315922  _ECSlave_FoE__Start                                            
0     003159d8  _ECSlave_FoE_StartRead                                         
0     003159e6  _ECSlave_FoE_StartWrite                                        
0     00315a71  _ECSlave_FoE__Data                                             
0     00315bc9  _Init_Watch                                                    
0     00315bca  _Watch_Init                                                    
0     00315c27  _Watch_Init_Free                                               
0     00315c57  _Watch_Run                                                     
0     00315c78  _Watch_Parser_Can                                              
0     00315d43  _Watch_SetWatchType                                            
0     00315d53  _Watch_WriteIndex                                              
0     00315d8b  _Watch_ReadIndex                                               
0     003161d4  _CreateTaskNet_HMI                                             
0     0031621f  _DestoryTaskNet_HMI                                            
0     00316220  _RunTaskNet_HMI                                                
0     00316280  _ParseNetData_FromHMI                                          
0     003162d8  _ReqActValue                                                   
0     0031632b  _ReqReadRefValue                                               
0     00316378  _ReqWriteRefValue                                              
0     00316418  _ReqMsgValue                                                   
0     0031641e  _ReqCurveValue                                                 
0     00316424  _ReqCommand                                                    
0     0031642a  _RespActValue                                                  
0     003164af  _RespRefValue                                                  
0     00316534  _RespCurveValue                                                
0     00316538  _RespCommand                                                   
0     0031653c  _SendTestBuffer                                                
0     00316541  _ReqLinkState                                                  
0     00316589  _RespLinkState                                                 
0     0031658d  _ReqMoldsetState                                               
0     003165b4  _RespMoldsetState                                              
0     003165f1  _ReqMoldsetUpdate                                              
0     003166c2  _RespMoldsetUpdate                                             
0     003166c6  _GetMoldsetState                                               
0     003166d2  _RespRefValueAuto                                              
0     00316818  _Init_EtherCat                                                 
0     00316837  _Run_EtherCat                                                  
0     003168b6  _SEtherCatSubCompUnique_Init                                   
0     003168be  _SEtherCatSubCompUnique_InitDBIndexToODInfo                    
0     003168cc  _SEtherCatCompUnique_Init                                      
0     003168f1  _SEtherCatCompUnique_InitEvent                                 
0     003168ff  _SEtherCatCompUnique_SetNodeID                                 
0     00316b7c  _DMAInitialize                                                 
0     00316b89  _DMACH1AddrConfig                                              
0     00316b99  _DMACH1BurstConfig                                             
0     00316ba9  _DMACH1TransferConfig                                          
0     00316bb9  _DMACH1WrapConfig                                              
0     00316bcc  _DMACH1ModeConfig                                              
0     00316c26  _StartDMACH1                                                   
0     00316c30  _DMACH2AddrConfig                                              
0     00316c40  _DMACH2BurstConfig                                             
0     00316c50  _DMACH2TransferConfig                                          
0     00316c60  _DMACH2WrapConfig                                              
0     00316c73  _DMACH2ModeConfig                                              
0     00316ccd  _StartDMACH2                                                   
0     00316cd7  _DMACH3AddrConfig                                              
0     00316ce7  _DMACH3BurstConfig                                             
0     00316cf7  _DMACH3TransferConfig                                          
0     00316d07  _DMACH3WrapConfig                                              
0     00316d1a  _DMACH3ModeConfig                                              
0     00316d74  _StartDMACH3                                                   
0     00316d7e  _DMACH4AddrConfig                                              
0     00316d8e  _DMACH4BurstConfig                                             
0     00316d9e  _DMACH4TransferConfig                                          
0     00316dae  _DMACH4WrapConfig                                              
0     00316dc1  _DMACH4ModeConfig                                              
0     00316e1b  _StartDMACH4                                                   
0     00316e25  _DMACH5AddrConfig                                              
0     00316e35  _DMACH5BurstConfig                                             
0     00316e45  _DMACH5TransferConfig                                          
0     00316e55  _DMACH5WrapConfig                                              
0     00316e68  _DMACH5ModeConfig                                              
0     00316ec2  _StartDMACH5                                                   
0     00316ecc  _DMACH6AddrConfig                                              
0     00316edc  _DMACH6BurstConfig                                             
0     00316eec  _DMACH6TransferConfig                                          
0     00316efc  _DMACH6WrapConfig                                              
0     00316f0f  _DMACH6ModeConfig                                              
0     00316f69  _StartDMACH6                                                   
0     00316f99  _CreateTask_EthercatMaster                                     
0     00316ff9  _DestoryTask_EthercatMaster                                    
0     00316ffa  _RunTask_EthercatMaster                                        
0     00317057  _DealSwitch_EthercatMaster                                     
0     00317073  _Restart_EtherCatMaster                                        
0     003170a1  _ECATMasterRx_PDOCheck                                         
0     003170aa  _ECATMasterGetError                                            
0     003170c3  _ECATMasterGetOfflineIndex                                     
0     003170d8  _Restart_SDOUpload                                             
0     003170dc  _SetSlaveParamReaderNULL                                       
0     003170e7  _GetECSlaveIdxByNodeID                                         
0     00317107  _SetECSlaveNodeID                                              
0     00317113  _SetAppSlaveCount                                              
0     00317128  _Reset_ECSlave                                                 
0     0031729f  _DealECSlaveHandle                                             
0     003172a9  _SetECSlaveClearErrorFlag                                      
0     003172b2  _RegCallBack_ECATMasterInitSlaveError                          
0     003172ba  _RegCallBack_ECATMasterDoClearError                            
0     003172c2  _RegCallBack_ECATMasterAfterClearError                         
0     003172ca  _RegCallBack_ECATMasterBeforeRun                               
0     003172d2  _RegCallBack_ResetECSlave_E2C                                  
0     003172da  _RegCallBack_ResetECSlave_HYB5TB                               
0     003172e2  _RegCallBack_ResetECSlave_HTJ6_Oil                             
0     003172ea  _RegCallBack_ResetECSlave_HTJ6_EleInj                          
0     003172f2  _RegCallBack_ResetECSlave_HTJ6_Plus                            
0     003172fa  _RegCallBack_ResetECSlave_MT_HUB_8A                            
0     00317302  _RegCallBack_ResetECSlave_HT_EH1708X                           
0     0031730a  _RegCallBack_ResetECSlave_BTL6_V11E                            
0     00317312  _RegCallBack_ResetECSlave_BTL6_V107                            
0     0031731a  _RegCallBack_ResetECSlave_PARKER_COMPAX3_FLUID                 
0     00317322  _RegCallBack_ResetECSlave_TR_LINEAR                            
0     0031732a  _RegCallBack_ResetECSlave_HTJ6_PP                              
0     00317332  _RegCallBack_ResetECSlave_REXROTH                              
0     0031733a  _RegCallBack_DealECSlaveHandle_New                             
0     00317493  _memory_init                                                   
0     0031750d  _memory_next                                                   
0     0031753d  _memory_size                                                   
0     0031756b  _memory__s_manager_malloc                                      
0     003175c4  _memory__s_manager_falloc                                      
0     00317633  _memory__s_manager_find                                        
0     00317670  _memory__s_manager_free                                        
0     003176d0  _memory__s_manager_remain                                      
0     00317789  _CommComp_Robot_init                                           
0     003177ae  _CommComp_Robot_clean                                          
0     003177d3  _CommComp_Robot_add_HT                                         
0     0031782f  _CommComp_Robot__s_card_HT_init                                
0     003178cb  _CANOpenHTRobot_PRIfcommRun_Null                               
0     003178d0  _CommComp_Robot__s_card_HT_add                                 
0     0031791e  _CommComp_Robot__s_card_HT_comp_event_callback                 
0     00317968  _CommComp_Robot__s_card_HT_CANopen_SDO_config_finish           
0     0031796f  _CommComp_Robot__s_card_HT_CANopen_event_callback              
0     003179d5  _CommComp_Robot__s_card_HT_CANopen_custom_operation            
0     00317aba  _Init_DB                                                       
0     00317c79  _Run_DB                                                        
0     00317c7a  _DB_GetIndex                                                   
0     00317c9c  _DB_IDToIndex                                                  
0     00317cbb  _DB_IndexToID                                                  
0     00317cc7  _DB_SizeofBData                                                
0     00317ce4  _DB_SetData                                                    
0     00317d0a  _DB_GetData                                                    
0     00317d30  _DB_SetDataBySysIndex                                          
0     00317d3f  _DB_GetDataBySysIndex                                          
0     00317d4e  _DB_SetDataByUserIndex                                         
0     00317d74  _DB_GetDataByUserIndex                                         
0     00317d99  _DB_CallCallBack                                               
0     00317db4  _SetDBValueByIndex                                             
0     00317dd1  _DB_CallbackDefault                                            
0     00317df6  _Create_Task                                                   
0     00317e0c  _Destroy_Task                                                  
0     00317e0d  _Create_WhileloopTask                                          
0     00317e76  _Create_TimerintTask                                           
0     00317ee1  _Create_UnTimerintTask                                         
0     00317f56  _Destroy_WhileloopTask                                         
0     00317f82  _Destroy_TimerintTask                                          
0     00317fae  _Destroy_UnTimerintTask                                        
0     00317fda  _Run_WhileloopTask                                             
0     00318045  _Run_TimerintTask                                              
0     003180ab  _Run_UnTimerintTask                                            
0     0031818d  _Create_Rexroth                                                
0     003181a0  _Init_RexrothControllerData                                    
0     003181cd  _Run_Rexroth                                                   
0     003181f7  _Init_DataRexrothController                                    
0     00318203  _Run_RexrothController                                         
0     0031821d  _Rexroth_WriteHandler                                          
0     00318262  _Rexroth_Write                                                 
0     003182fc  _Rexroth_Read                                                  
0     003183da  _Rexroth_ReadRexroth                                           
0     00318413  _Rexroth_WriteRexroth                                          
0     00318553  _ethernet_switch_s_port_init                                   
0     00318582  _ethernet_switch_s_port_add                                    
0     003185b0  _ethernet_switch_s_port_set_forward_frame                      
0     003185e0  _ethernet_switch_s_port_set_link                               
0     0031861e  _ethernet_switch_s_port_recved_frame                           
0     00318767  _main                                                          
0     0031898b  _debug_assert                                                  
0     00318995  _assert                                                        
0     0031899b  _strtold                                                       
0     00318c25  _Create_TaskIO                                                 
0     00318c4e  _Destroy_TaskIO                                                
0     00318c4f  _Run_TaskIO                                                    
0     00318c58  _Run_TaskAD                                                    
0     00318c8d  _Write_DAProtected                                             
0     00318c9d  _Scan_IODeviceData                                             
0     00318ca0  _Get_IODeviceData                                              
0     00318cf3  _Set_IODeviceData                                              
0     00318d28  _Read_Input                                                    
0     00318d4a  _Set_Output                                                    
0     00318d67  _Clr_Output                                                    
0     00318d85  _ReadEEPROM_ADCalibrateInfo                                    
0     00318de1  _Commissioning_ResetCalibrateAD                                
0     00318df3  _Commissioning_CalibrateADMax                                  
0     00318e10  _Commissioning_CalibrateADMin                                  
0     00318e2d  _Commissioning_SetPeripheralMinVoltage                         
0     00318e41  _Commissioning_SetPeripheralMaxVoltage                         
0     00318e55  _Commissioning_CalibrateADSave                                 
0     00318e9a  _strtod                                                        
0     00318e9a  _strtof                                                        
0     0031910d  _PwmtrCard_Init                                                
0     0031915a  _SCommPwmtrCardInfo_Init                                       
0     00319165  _SCommPwmtrCard_Init                                           
0     00319291  _free                                                          
0     003192d5  _minit                                                         
0     003192fa  _malloc                                                        
0     00319358  _realloc                                                       
0     0031940c  _max_free                                                      
0     0031942e  _free_memory                                                   
0     0031944c  _chkheap                                                       
0     0031944e  _calloc                                                        
0     00319465  _InitADCalibrate                                               
0     00319472  _SetPeripheralADMinVoltage                                     
0     003194d8  _SetPeripheralADMaxVoltage                                     
0     0031953f  _SetCalibrateADMinValue                                        
0     00319580  _SetCalibrateADMaxValue                                        
0     003195c1  _CalibrateADMinValue                                           
0     003195c8  _CalibrateADMaxValue                                           
0     003195cf  _ResetCalibrateADValue                                         
0     003195e3  _GetCalibrateADValue                                           
0     00319608  __OpenSPI                                                      
0     0031962f  __CloseSPI                                                     
0     0031963c  __SetSPIBaudRate                                               
0     0031964b  __ConfigEEPROM                                                 
0     00319651  __ConfigExternalAD                                             
0     00319666  __SPITXEndWait                                                 
0     00319677  __EEPROMWriteEnable                                            
0     00319678  __EEPROMWriteDisable                                           
0     00319679  __ReadEEPROMBySPI                                              
0     003196aa  __WriteEEPROMBySPI                                             
0     003196b3  __SetDAValue                                                   
0     003196c4  _GetDAChannel1                                                 
0     003196c8  _GetDAChannel2                                                 
0     003196cc  __ConfigEtherCAT                                               
0     00319704  __WriteET1100BySPI                                             
0     00319742  __ReadET1100BySPI                                              
0     0031978b  __ReadET1100IntRegBySPI                                        
0     003197a8  _Create_BitIn                                                  
0     003197ad  _Create_BitOut                                                 
0     003197b2  _Create_Encoder                                                
0     003197d7  _Get_Encoder                                                   
0     003197fa  _Set_Encoder                                                   
0     0031981f  _Create_DA                                                     
0     0031982a  _Set_DA                                                        
0     003198a9  _Create_AD                                                     
0     003198b3  _Get_AD                                                        
0     003198cf  _Scan_AD1                                                      
0     003198d2  _Scan_AD2                                                      
0     003198d3  _Scan_BitIn                                                    
0     003198da  _GetAllInput                                                   
0     003198de  _Get_BitIn                                                     
0     003198f2  _SetALLOutput                                                  
0     003198fb  _Set_BitOut                                                    
0     0031990d  _Clr_BitOut                                                    
0     00319920  _strtoll                                                       
0     00319aae  _memory_manager_init                                           
0     00319abd  _memory_malloc                                                 
0     00319adc  _memory_free                                                   
0     00319af6  _void2str                                                      
0     00319b42  _strlen_void                                                   
0     00319b79  _strncpy_void                                                  
0     00319bf2  __Open_DoubleE                                                 
0     00319c09  __DoubleE_Read                                                 
0     00319c49  __DoubleE_Write                                                
0     00319d1f  _tftp_send_data                                                
0     00319d9a  _tftp_send_ack                                                 
0     00319dce  _tftp_send_error                                               
0     00319e34  _tftp_send_error_default                                       
0     00319e4d  _strtoull                                                      
0     00319f6f  _InitXintf                                                     
0     00319fed  _InitXintf32Gpio                                               
0     0031a034  _InitXintf16Gpio                                               
0     0031a0e8  _Error_App_Init                                                
0     0031a0eb  _Error_App_Run                                                 
0     0031a0f0  _Error_App_Reset                                               
0     0031a0fd  _Get_MasterError                                               
0     0031a116  _Set_MasterError                                               
0     0031a160  _Set_CommChipError                                             
0     0031a16e  _Set_CommChipErrorDetail                                       
0     0031a193  LL$$DIV                                                        
0     0031a1cf  LL$$MOD                                                        
0     0031a209  ULL$$DIV                                                       
0     0031a238  ULL$$MOD                                                       
0     0031a29a  _InitSysCtrl                                                   
0     0031a2a3  _ServiceDog                                                    
0     0031a2ad  _DisableDog                                                    
0     0031a2b5  _InitPll                                                       
0     0031a306  _InitPeripheralClocks                                          
0     0031a361  _CsmUnlock                                                     
0     0031a409  ___TI_cleanup                                                  
0     0031a426  _freopen                                                       
0     0031a444  _fopen                                                         
0     0031a4a1  _InitADC_LTC1864                                               
0     0031a4e1  _DestroyADC_LTC1864                                            
0     0031a4e2  __Read_ADC_LTC1864                                             
0     0031a4f6  _CONV_ADC_LTC1864                                              
0     0031a534  __SelectCHL_ADC_LTC1864                                        
0     0031a591  _Init_Led                                                      
0     0031a5c3  _Run_Led                                                       
0     0031a61e  _Led_MasterLink                                                
0     0031a62c  _Led_HMILink                                                   
0     0031a63a  _Led_Error                                                     
0     0031a648  _strtol                                                        
0     0031a73c  _CreateTaskLed                                                 
0     0031a76b  _DestoryTaskLed                                                
0     0031a77a  _LED_ON                                                        
0     0031a792  _LED_OFF                                                       
0     0031a7aa  _RedLed                                                        
0     0031a7b2  _GreenLed                                                      
0     0031a7bb  _RunLed                                                        
0     0031a7f1  _strtoul                                                       
0     0031a8a2  _fputs                                                         
0     0031a93f  _puts                                                          
0     0031a952  _ldexpl                                                        
0     0031a952  _scalbnl                                                       
0     0031aa00  _CompPulse_Init                                                
0     0031aa27  _CompPulse_Reset                                               
0     0031aa4a  _CompPulse_Run                                                 
0     0031aa8a  _CompPulse_SetTab                                              
0     0031aa9e  FD$$ADD                                                        
0     0031ab3a  _InitGpio                                                      
0     0031abb9  _ReadIO                                                        
0     0031abc5  _WriteIO                                                       
0     0031abd5  __system_post_cinit                                            
0     0031abd6  ___TI_writemsg                                                 
0     0031ac29  C$$IO$$                                                        
0     0031ac2e  ___TI_readmsg                                                  
0     0031ac6b  FD$$DIV                                                        
0     0031acf6  _setvbuf                                                       
0     0031ad7f  FS$$DIV                                                        
0     0031ae07  FD$$MPY                                                        
0     0031ae8a  _HexToL                                                        
0     0031aee4  _CalcCPULoadEnd                                                
0     0031af05  _InitCpuTimers                                                 
0     0031af3e  _ConfigCpuTimer                                                
0     0031af78  ___TI_doflush                                                  
0     0031afa7  _fflush                                                        
0     0031afeb  _open                                                          
0     0031b05c  _vsscanf                                                       
0     0031b06c  _sscanf                                                        
0     0031b0c9  ___TI_wrt_ok                                                   
0     0031b104  ___TI_rd_ok                                                    
0     0031b130  _Init_Task_Watch                                               
0     0031b16b  _Run_Task_Watch                                                
0     0031b195  _CompLed_Init                                                  
0     0031b1ad  _CompLed_SetOnOff                                              
0     0031b1c9  _CompLed_Run                                                   
0     0031b1f8  _HOSTlseek                                                     
0     0031b259  _CANOpen_Open                                                  
0     0031b260  _CANOpen_Close                                                 
0     0031b268  _CANOpen_RX                                                    
0     0031b26f  _CANOpen_TX                                                    
0     0031b276  _CANOpen_Read                                                  
0     0031b283  _CANOpen_Write                                                 
0     0031b2b8  ___TI_closefile                                                
0     0031b2fc  _fclose                                                        
0     0031b317  _frexpl                                                        
0     0031b371  _ldexp                                                         
0     0031b371  _ldexpf                                                        
0     0031b371  _scalbn                                                        
0     0031b371  _scalbnf                                                       
0     0031b3cb  _snprintf                                                      
0     0031b425  _c_int00                                                       
0     0031b47b  _Initperipheral                                                
0     0031b4aa  _InitIO                                                        
0     0031b4ce  _fputc                                                         
0     0031b4ce  _putc                                                          
0     0031b51c  _putchar                                                       
0     0031b521  _finddevice                                                    
0     0031b53c  _getdevice                                                     
0     0031b572  _ReadString_EEPROM                                             
0     0031b58e  _WriteString_EEPROM                                            
0     0031b5c2  _cpu_timer0_isr                                                
0     0031b611  _CreatTask_Temper                                              
0     0031b62d  _DestoryTask_Temper                                            
0     0031b633  _RunTask_Temper                                                
0     0031b63c  _CreatTask_Temper_NormalMold                                   
0     0031b648  _CreatTask_Temper_FastMold                                     
0     0031b654  _RunTask_Temper_NormalMold                                     
0     0031b659  _RunTask_Temper_FastMold                                       
0     0031b65e  _InitQEPA                                                      
0     0031b674  _InitQEPB                                                      
0     0031b68a  _ReadQEPA                                                      
0     0031b692  _ReadQEPB                                                      
0     0031b69a  _WriteQEPA                                                     
0     0031b6a2  _WriteQEPB                                                     
0     0031b6aa  _CreateTaskNet                                                 
0     0031b6da  _DestoryTaskNet                                                
0     0031b6e1  _RunTaskNet                                                    
0     0031b6e2  _DefaultDealIP                                                 
0     0031b6e7  _DefaultDealTECH                                               
0     0031b6ec  _HOSTopen                                                      
0     0031b72c  _HOSTread                                                      
0     0031b76b  _HOSTrename                                                    
0     0031b7a9  _fseek                                                         
0     0031b7e6  _HOSTwrite                                                     
0     0031b824  _printf                                                        
0     0031b852  _close                                                         
0     0031b885  _atoi                                                          
0     0031b8b6  _ltoa                                                          
0     0031b8e6  FD$$CMP                                                        
0     0031b910  L$$DIV                                                         
0     0031b91f  L$$MOD                                                         
0     0031b92d  UL$$DIV                                                        
0     0031b934  UL$$MOD                                                        
0     0031b93a  C$$EXIT                                                        
0     0031b93a  _abort                                                         
0     0031b93c  _exit                                                          
0     0031b963  _HOSTclose                                                     
0     0031b98c  _InitPieCtrl                                                   
0     0031b9ab  _EnableInterrupts                                              
0     0031b9b4  _copysignl                                                     
0     0031b9d9  _copy_in                                                       
0     0031b9fd  _HOSTunlink                                                    
0     0031ba21  I$$DIV                                                         
0     0031ba32  I$$MOD                                                         
0     0031ba43  FD$$TOI                                                        
0     0031ba64  _InitPieVectTable                                              
0     0031ba84  FD$$TOL                                                        
0     0031baa3  LL$$CMP                                                        
0     0031bab5  ULL$$CMP                                                       
0     0031bac1  _strncpy                                                       
0     0031badf  I$$TOFD                                                        
0     0031bafc  FS$$TOFD                                                       
0     0031bb18  L$$TOFD                                                        
0     0031bb34  __args_main                                                    
0     0031bb4d  _unlink                                                        
0     0031bb66  _write                                                         
0     0031bb7f  LL$$AND                                                        
0     0031bb87  LL$$OR                                                         
0     0031bb8f  LL$$XOR                                                        
0     0031bb97  _lseek                                                         
0     0031bbaf  _strncmp                                                       
0     0031bbc7  _memcmp                                                        
0     0031bbdc  LL$$MPY                                                        
0     0031bbf0  _copysign                                                      
0     0031bbf0  _copysignf                                                     
0     0031bc02  _memchr                                                        
0     0031bc12  FD$$SUB                                                        
0     0031bc20  _memccpy                                                       
0     0031bc2d  _strchr                                                        
0     0031bc39  _strrchr                                                       
0     0031bc44  U$$DIV                                                         
0     0031bc49  U$$MOD                                                         
0     0031bc4f  _strcmp                                                        
0     0031bc59  _InitADC                                                       
0     0031bc5e  _ReadADC                                                       
0     0031bc62  __register_unlock                                              
0     0031bc66  __register_lock                                                
0     0031bc6a  __nop                                                          
0     0031bc6b  FD$$NEG                                                        
0     0031bc74  _wcslen                                                        
0     0031bc85  _strlen                                                        
0     0031bc8d  _InitSpiDA                                                     
0     0031bc8e  _SpiDaOut                                                      
0     0031bc92  _strcpy                                                        
0     0031bc97  _GetVersion_Kernel                                             
0     0031bc9b  _remove                                                        
0     0031bc9e  __system_pre_init                                              
0     0031bca0  _gc_asAttribInfo                                               
0     00320d68  __ctypes_                                                      
0     00320e6a  _PieVectTableInit                                              
0     00321060  _gc_asGroup                                                    
0     00321978  _g_CMDMap                                                      
0     00321b94  _g_PC_commmap                                                  
0     00321bc0  _g_commmap                                                     
0     003224c7  _LEDSHOW_OFF                                                   
0     003224c8  _cnst_DealEtherCatFunc                                         
0     0032263d  _uc_assPulse                                                   
0     003228f2  _cnst_ADController                                             
0     0032290a  _gc_sCommComp                                                  
0     00322a58  _CNST_CANREG                                                   
0     00322a6c  _CNST_ENCODER                                                  
0     00322bab  _BitMask                                                       
0     00322bbb  _gc_asWatchIndex                                               
0     00322c90  _CNST_DSP54IP                                                  
0     00322c9c  _CNST_IOETH_EC                                                 
0     00322ca8  _CNST_PCIP                                                     
0     00322cb4  _g_PC_ctrlcmdmap                                               
0     00322cf0  _uc_NodeIDCheck_CAN2Tab                                        
0     00322d26  _IO_BitMask                                                    
0     00322d59  _CNST_INITSRCIP                                                
0     00322d5f  _gc_asDataType                                                 
0     00322d78  _LEDSHOW_SERVICE_STOP                                          
0     00322d7d  _g_logo                                                        
0     00322d82  _uc_NodeIDCheck_CAN1Tab                                        
0     00322d98  _Access__base_index                                            
0     00322d9c  _GeneralRW__base_index                                         
0     00322db0  _HEADER_RES                                                    
0     00322db1  _HEADER_REQ                                                    
0     00322db2  _FOOTER_RES                                                    
0     00322db3  _FOOTER_REQ                                                    
0     00322dd5  _LEDSHOW_1000MS                                                
0     00322dd8  _LEDSHOW_100MS                                                 
0     00322ddb  _u_Temper_Alg_Config                                           
0     00322dde  _u_Temper_Alg_Config_FastMold                                  
0     00322dfa  _LEDSHOW_ON                                                    
0     00322dfc  _Rexroth__base_index                                           
0     00322dfe  _gc_sOldWatchIndex                                             
0     00322e1a  _const_version_kernel                                          
0     00322e1c  ___cinit__                                                     
0     00322e1c  cinit                                                          
0     0032fd00  _u_BurnSystem                                                  
0     0032fffe  code_start                                                     
0     00380080  _ADC_cal                                                       
0     00380090  _PartIdRegs                                                    
0     003fe000  _IQsinTable                                                    
0     003fe100  _IQcosTable                                                    
0     003fe400  _IQsinTableEnd                                                 
0     003fe502  _IQcosTableEnd                                                 
0     003fe502  _IQdivRoundSatTable                                            
0     003fe510  _IQdivTable                                                    
0     003fe712  _IQdivTableEnd                                                 
0     003fe712  _IQisqrtRoundSatTable                                          
0     003fe712  _IQsqrtRoundSatTable                                           
0     003fe722  _IQisqrtTable                                                  
0     003fe722  _IQsqrtTable                                                   
0     003fe824  _IQatan2HalfPITable                                            
0     003fe824  _IQisqrtTableEnd                                               
0     003fe824  _IQsqrtTableEnd                                                
0     003fe862  _IQatan2Table                                                  
0     003fe9e8  _IQ30mpyRndSatTable                                            
0     003fe9e8  _IQatan2TableEnd                                               
0     003fe9e8  _IQmpyRndSatTable                                              
0     003fe9f4  _IQ29mpyRndSatTable                                            
0     003fea00  _IQ28mpyRndSatTable                                            
0     003fea0c  _IQ27mpyRndSatTable                                            
0     003fea18  _IQ26mpyRndSatTable                                            
0     003fea24  _IQ25mpyRndSatTable                                            
0     003fea30  _IQ24mpyRndSatTable                                            
0     003fea3c  _IQ23mpyRndSatTable                                            
0     003fea48  _IQ22mpyRndSatTable                                            
0     003fea54  _IQ21mpyRndSatTable                                            
0     003fea60  _IQ20mpyRndSatTable                                            
0     003fea6c  _IQ19mpyRndSatTable                                            
0     003fea78  _IQ18mpyRndSatTable                                            
0     003fea84  _IQ17mpyRndSatTable                                            
0     003fea90  _IQ16mpyRndSatTable                                            
0     003fea9c  _IQ15mpyRndSatTable                                            
0     003feaa8  _IQ14mpyRndSatTable                                            
0     003feab4  _IQ13mpyRndSatTable                                            
0     003feac0  _IQ12mpyRndSatTable                                            
0     003feacc  _IQ11mpyRndSatTable                                            
0     003fead8  _IQ10mpyRndSatTable                                            
0     003feae4  _IQ9mpyRndSatTable                                             
0     003feaf0  _IQ8mpyRndSatTable                                             
0     003feafc  _IQ7mpyRndSatTable                                             
0     003feb08  _IQ6mpyRndSatTable                                             
0     003feb14  _IQ5mpyRndSatTable                                             
0     003feb20  _IQ4mpyRndSatTable                                             
0     003feb2c  _IQ3mpyRndSatTable                                             
0     003feb38  _IQ2mpyRndSatTable                                             
0     003feb44  _IQ1mpyRndSatTable                                             
0     003feb50  _IQmpyRndSatTableEnd                                           
1     0033fff8  _CsmPwl                                                        
abs   00000180  __SYSMEM_SIZE                                                  
abs   00000400  __STACK_SIZE                                                   
abs   00000600  _heap_size                                                     
abs   ffffffff  .text                                                          
abs   ffffffff  ___TI_pprof_out_hndl                                           
abs   ffffffff  ___TI_prof_data_size                                           
abs   ffffffff  ___TI_prof_data_start                                          
abs   ffffffff  ___binit__                                                     
abs   ffffffff  ___c_args__                                                    
abs   ffffffff  ___etext__                                                     
abs   ffffffff  ___pinit__                                                     
abs   ffffffff  ___text__                                                      
abs   ffffffff  binit                                                          
abs   ffffffff  etext                                                          
abs   ffffffff  pinit                                                          

[1549 symbols]
